

Microchip MPLAB XC8 Assembler V2.10 build 88905656 
                                                                                               Mon May 11 18:18:48 2020

Microchip MPLAB XC8 C Compiler v2.10 (Free license) build 20190730164152 Og1 
     1                           	processor	16F887
     2                           	opt	pw 120
     3                           	opt	flic
     4                           	psect	strings,global,class=STRING,delta=2
     5                           	psect	cinit,global,class=CODE,merge=1,delta=2
     6                           	psect	bssBANK0,global,class=BANK0,space=1,delta=1
     7                           	psect	clrtext,global,class=CODE,delta=2
     8                           	psect	cstackCOMMON,global,class=COMMON,space=1,delta=1
     9                           	psect	cstackBANK0,global,class=BANK0,space=1,delta=1
    10                           	psect	maintext,global,class=CODE,split=1,delta=2
    11                           	psect	text1,local,class=CODE,merge=1,delta=2
    12                           	psect	text2,local,class=CODE,merge=1,delta=2
    13                           	psect	text3,local,class=CODE,merge=1,delta=2
    14                           	psect	text4,local,class=CODE,merge=1,delta=2,group=1
    15                           	psect	text5,local,class=CODE,merge=1,delta=2
    16                           	psect	text6,local,class=CODE,merge=1,delta=2
    17                           	psect	text7,local,class=CODE,merge=1,delta=2
    18                           	psect	text8,local,class=CODE,merge=1,delta=2
    19                           	psect	text9,local,class=CODE,merge=1,delta=2
    20                           	psect	text10,local,class=CODE,merge=1,delta=2
    21                           	psect	text11,local,class=CODE,merge=1,delta=2
    22                           	psect	text12,local,class=CODE,merge=1,delta=2
    23                           	psect	text13,local,class=CODE,merge=1,delta=2
    24                           	psect	text14,local,class=CODE,merge=1,delta=2
    25                           	psect	text15,local,class=CODE,merge=1,delta=2
    26                           	psect	text16,local,class=CODE,merge=1,delta=2,group=1
    27                           	psect	text17,local,class=CODE,merge=1,delta=2,group=1
    28                           	dabs	1,0x7E,2
    29  0000                     
    30                           ; Version 2.10
    31                           ; Generated 31/07/2019 GMT
    32                           ; 
    33                           ; Copyright © 2019, Microchip Technology Inc. and its subsidiaries ("Microchip")
    34                           ; All rights reserved.
    35                           ; 
    36                           ; This software is developed by Microchip Technology Inc. and its subsidiaries ("Microch
      +                          ip").
    37                           ; 
    38                           ; Redistribution and use in source and binary forms, with or without modification, are
    39                           ; permitted provided that the following conditions are met:
    40                           ; 
    41                           ;     1. Redistributions of source code must retain the above copyright notice, this lis
      +                          t of
    42                           ;        conditions and the following disclaimer.
    43                           ; 
    44                           ;     2. Redistributions in binary form must reproduce the above copyright notice, this 
      +                          list
    45                           ;        of conditions and the following disclaimer in the documentation and/or other
    46                           ;        materials provided with the distribution.
    47                           ; 
    48                           ;     3. Microchip's name may not be used to endorse or promote products derived from th
      +                          is
    49                           ;        software without specific prior written permission.
    50                           ; 
    51                           ; THIS SOFTWARE IS PROVIDED BY MICROCHIP "AS IS" AND ANY EXPRESS OR IMPLIED WARRANTIES,
    52                           ; INCLUDING, BUT NOT LIMITED TO, THE IMPLIED WARRANTIES OF MERCHANTABILITY AND FITNESS F
      +                          OR
    53                           ; PURPOSE ARE DISCLAIMED.  IN NO EVENT SHALL MICROCHIP BE LIABLE FOR ANY DIRECT, INDIREC
      +                          T,
    54                           ; INCIDENTAL, SPECIAL, EXEMPLARY, OR CONSEQUENTIAL DAMAGES (INCLUDING BUT NOT LIMITED TO
    55                           ; PROCUREMENT OF SUBSTITUTE GOODS OR SERVICES; LOSS OF USE, DATA OR PROFITS; OR BUSINESS
    56                           ; INTERRUPTION) HOWSOEVER CAUSED AND ON ANY THEORY OF LIABILITY, WHETHER IN CONTRACT, ST
      +                          RICT
    57                           ; LIABILITY, OR TORT (INCLUDING NEGLIGENCE OR OTHERWISE) ARISING IN ANY WAY OUT OF THE U
      +                          SE OF
    58                           ; THIS SOFTWARE, EVEN IF ADVISED OF THE POSSIBILITY OF SUCH DAMAGE.
    59                           ; 
    60                           ; 
    61                           ; Code-generator required, PIC16F887 Definitions
    62                           ; 
    63                           ; SFR Addresses
    64  0000                     	;# 
    65  0001                     	;# 
    66  0002                     	;# 
    67  0003                     	;# 
    68  0004                     	;# 
    69  0005                     	;# 
    70  0006                     	;# 
    71  0007                     	;# 
    72  0008                     	;# 
    73  0009                     	;# 
    74  000A                     	;# 
    75  000B                     	;# 
    76  000C                     	;# 
    77  000D                     	;# 
    78  000E                     	;# 
    79  000E                     	;# 
    80  000F                     	;# 
    81  0010                     	;# 
    82  0011                     	;# 
    83  0012                     	;# 
    84  0013                     	;# 
    85  0014                     	;# 
    86  0015                     	;# 
    87  0015                     	;# 
    88  0016                     	;# 
    89  0017                     	;# 
    90  0018                     	;# 
    91  0019                     	;# 
    92  001A                     	;# 
    93  001B                     	;# 
    94  001B                     	;# 
    95  001C                     	;# 
    96  001D                     	;# 
    97  001E                     	;# 
    98  001F                     	;# 
    99  0081                     	;# 
   100  0085                     	;# 
   101  0086                     	;# 
   102  0087                     	;# 
   103  0088                     	;# 
   104  0089                     	;# 
   105  008C                     	;# 
   106  008D                     	;# 
   107  008E                     	;# 
   108  008F                     	;# 
   109  0090                     	;# 
   110  0091                     	;# 
   111  0092                     	;# 
   112  0093                     	;# 
   113  0093                     	;# 
   114  0093                     	;# 
   115  0094                     	;# 
   116  0095                     	;# 
   117  0096                     	;# 
   118  0097                     	;# 
   119  0098                     	;# 
   120  0099                     	;# 
   121  009A                     	;# 
   122  009B                     	;# 
   123  009C                     	;# 
   124  009D                     	;# 
   125  009E                     	;# 
   126  009F                     	;# 
   127  0105                     	;# 
   128  0107                     	;# 
   129  0108                     	;# 
   130  0109                     	;# 
   131  010C                     	;# 
   132  010C                     	;# 
   133  010D                     	;# 
   134  010E                     	;# 
   135  010F                     	;# 
   136  0185                     	;# 
   137  0187                     	;# 
   138  0188                     	;# 
   139  0189                     	;# 
   140  018C                     	;# 
   141  018D                     	;# 
   142  0000                     	;# 
   143  0001                     	;# 
   144  0002                     	;# 
   145  0003                     	;# 
   146  0004                     	;# 
   147  0005                     	;# 
   148  0006                     	;# 
   149  0007                     	;# 
   150  0008                     	;# 
   151  0009                     	;# 
   152  000A                     	;# 
   153  000B                     	;# 
   154  000C                     	;# 
   155  000D                     	;# 
   156  000E                     	;# 
   157  000E                     	;# 
   158  000F                     	;# 
   159  0010                     	;# 
   160  0011                     	;# 
   161  0012                     	;# 
   162  0013                     	;# 
   163  0014                     	;# 
   164  0015                     	;# 
   165  0015                     	;# 
   166  0016                     	;# 
   167  0017                     	;# 
   168  0018                     	;# 
   169  0019                     	;# 
   170  001A                     	;# 
   171  001B                     	;# 
   172  001B                     	;# 
   173  001C                     	;# 
   174  001D                     	;# 
   175  001E                     	;# 
   176  001F                     	;# 
   177  0081                     	;# 
   178  0085                     	;# 
   179  0086                     	;# 
   180  0087                     	;# 
   181  0088                     	;# 
   182  0089                     	;# 
   183  008C                     	;# 
   184  008D                     	;# 
   185  008E                     	;# 
   186  008F                     	;# 
   187  0090                     	;# 
   188  0091                     	;# 
   189  0092                     	;# 
   190  0093                     	;# 
   191  0093                     	;# 
   192  0093                     	;# 
   193  0094                     	;# 
   194  0095                     	;# 
   195  0096                     	;# 
   196  0097                     	;# 
   197  0098                     	;# 
   198  0099                     	;# 
   199  009A                     	;# 
   200  009B                     	;# 
   201  009C                     	;# 
   202  009D                     	;# 
   203  009E                     	;# 
   204  009F                     	;# 
   205  0105                     	;# 
   206  0107                     	;# 
   207  0108                     	;# 
   208  0109                     	;# 
   209  010C                     	;# 
   210  010C                     	;# 
   211  010D                     	;# 
   212  010E                     	;# 
   213  010F                     	;# 
   214  0185                     	;# 
   215  0187                     	;# 
   216  0188                     	;# 
   217  0189                     	;# 
   218  018C                     	;# 
   219  018D                     	;# 
   220  0000                     	;# 
   221  0001                     	;# 
   222  0002                     	;# 
   223  0003                     	;# 
   224  0004                     	;# 
   225  0005                     	;# 
   226  0006                     	;# 
   227  0007                     	;# 
   228  0008                     	;# 
   229  0009                     	;# 
   230  000A                     	;# 
   231  000B                     	;# 
   232  000C                     	;# 
   233  000D                     	;# 
   234  000E                     	;# 
   235  000E                     	;# 
   236  000F                     	;# 
   237  0010                     	;# 
   238  0011                     	;# 
   239  0012                     	;# 
   240  0013                     	;# 
   241  0014                     	;# 
   242  0015                     	;# 
   243  0015                     	;# 
   244  0016                     	;# 
   245  0017                     	;# 
   246  0018                     	;# 
   247  0019                     	;# 
   248  001A                     	;# 
   249  001B                     	;# 
   250  001B                     	;# 
   251  001C                     	;# 
   252  001D                     	;# 
   253  001E                     	;# 
   254  001F                     	;# 
   255  0081                     	;# 
   256  0085                     	;# 
   257  0086                     	;# 
   258  0087                     	;# 
   259  0088                     	;# 
   260  0089                     	;# 
   261  008C                     	;# 
   262  008D                     	;# 
   263  008E                     	;# 
   264  008F                     	;# 
   265  0090                     	;# 
   266  0091                     	;# 
   267  0092                     	;# 
   268  0093                     	;# 
   269  0093                     	;# 
   270  0093                     	;# 
   271  0094                     	;# 
   272  0095                     	;# 
   273  0096                     	;# 
   274  0097                     	;# 
   275  0098                     	;# 
   276  0099                     	;# 
   277  009A                     	;# 
   278  009B                     	;# 
   279  009C                     	;# 
   280  009D                     	;# 
   281  009E                     	;# 
   282  009F                     	;# 
   283  0105                     	;# 
   284  0107                     	;# 
   285  0108                     	;# 
   286  0109                     	;# 
   287  010C                     	;# 
   288  010C                     	;# 
   289  010D                     	;# 
   290  010E                     	;# 
   291  010F                     	;# 
   292  0185                     	;# 
   293  0187                     	;# 
   294  0188                     	;# 
   295  0189                     	;# 
   296  018C                     	;# 
   297  018D                     	;# 
   298  0006                     _PORTB	set	6
   299  0008                     _PORTDbits	set	8
   300  0019                     _TXREG	set	25
   301  001A                     _RCREG	set	26
   302  0065                     _RCIF	set	101
   303  00C4                     _CREN	set	196
   304  00C7                     _SPEN	set	199
   305  0086                     _TRISB	set	134
   306  0088                     _TRISDbits	set	136
   307  0099                     _SPBRG	set	153
   308  04C1                     _TRMT	set	1217
   309  04C5                     _TXEN	set	1221
   310  043E                     _TRISC6	set	1086
   311  043F                     _TRISC7	set	1087
   312  04C4                     _SYNC	set	1220
   313  04C2                     _BRGH	set	1218
   314                           
   315                           	psect	strings
   316  0003                     __pstrings:	
   317  0003                     stringtab:	
   318  0003                     __stringtab:	
   319  0003                     stringcode:	
   320                           ;	String table - string pointers are 1 byte each
   321                           
   322  0003                     stringdir:	
   323  0003  3000               	movlw	high stringdir
   324  0004  008A               	movwf	10
   325  0005  0804               	movf	4,w
   326  0006  0A84               	incf	4,f
   327  0007  0782               	addwf	2,f
   328  0008                     __stringbase:	
   329  0008  3400               	retlw	0
   330  0009                     __end_of__stringtab:	
   331  0009                     STR_5:	
   332  0009  3441               	retlw	65	;'A'
   333  000A  3444               	retlw	68	;'D'
   334  000B  3443               	retlw	67	;'C'
   335  000C  3420               	retlw	32	;' '
   336  000D  3420               	retlw	32	;' '
   337  000E  3443               	retlw	67	;'C'
   338  000F  344F               	retlw	79	;'O'
   339  0010  3455               	retlw	85	;'U'
   340  0011  344E               	retlw	78	;'N'
   341  0012  3454               	retlw	84	;'T'
   342  0013  3445               	retlw	69	;'E'
   343  0014  3452               	retlw	82	;'R'
   344  0015  3420               	retlw	32	;' '
   345  0016  3446               	retlw	70	;'F'
   346  0017  344F               	retlw	79	;'O'
   347  0018  3454               	retlw	84	;'T'
   348  0019  3400               	retlw	0
   349  001A                     STR_6:	
   350  001A  3420               	retlw	32	;' '
   351  001B  342E               	retlw	46	;'.'
   352  001C  3420               	retlw	32	;' '
   353  001D  3420               	retlw	32	;' '
   354  001E  3456               	retlw	86	;'V'
   355  001F  3420               	retlw	32	;' '
   356  0020  3420               	retlw	32	;' '
   357  0021  3420               	retlw	32	;' '
   358  0022  3420               	retlw	32	;' '
   359  0023  3420               	retlw	32	;' '
   360  0024  3420               	retlw	32	;' '
   361  0025  3420               	retlw	32	;' '
   362  0026  342E               	retlw	46	;'.'
   363  0027  3420               	retlw	32	;' '
   364  0028  3420               	retlw	32	;' '
   365  0029  3456               	retlw	86	;'V'
   366  002A  3400               	retlw	0
   367  002B                     STR_3:	
   368  002B  344C               	retlw	76	;'L'
   369  002C  3441               	retlw	65	;'A'
   370  002D  3442               	retlw	66	;'B'
   371  002E  344F               	retlw	79	;'O'
   372  002F  3452               	retlw	82	;'R'
   373  0030  3441               	retlw	65	;'A'
   374  0031  3454               	retlw	84	;'T'
   375  0032  344F               	retlw	79	;'O'
   376  0033  3452               	retlw	82	;'R'
   377  0034  3449               	retlw	73	;'I'
   378  0035  344F               	retlw	79	;'O'
   379  0036  3420               	retlw	32	;' '
   380  0037  3435               	retlw	53	;'5'
   381  0038  3420               	retlw	32	;' '
   382  0039  3420               	retlw	32	;' '
   383  003A  3400               	retlw	0
   384  003B                     STR_1:	
   385  003B  3445               	retlw	69	;'E'
   386  003C  3473               	retlw	115	;'s'
   387  003D  3474               	retlw	116	;'t'
   388  003E  3475               	retlw	117	;'u'
   389  003F  3461               	retlw	97	;'a'
   390  0040  3472               	retlw	114	;'r'
   391  0041  3464               	retlw	100	;'d'
   392  0042  346F               	retlw	111	;'o'
   393  0043  3420               	retlw	32	;' '
   394  0044  344D               	retlw	77	;'M'
   395  0045  3461               	retlw	97	;'a'
   396  0046  346E               	retlw	110	;'n'
   397  0047  3463               	retlw	99	;'c'
   398  0048  3469               	retlw	105	;'i'
   399  0049  346F               	retlw	111	;'o'
   400  004A  3400               	retlw	0
   401  004B                     STR_4:	
   402  004B  3449               	retlw	73	;'I'
   403  004C  3432               	retlw	50	;'2'
   404  004D  3443               	retlw	67	;'C'
   405  004E  3420               	retlw	32	;' '
   406  004F  3420               	retlw	32	;' '
   407  0050  3400               	retlw	0
   408  0051                     STR_2:	
   409  0051  3431               	retlw	49	;'1'
   410  0052  3438               	retlw	56	;'8'
   411  0053  3430               	retlw	48	;'0'
   412  0054  3432               	retlw	50	;'2'
   413  0055  3437               	retlw	55	;'7'
   414  0056  3400               	retlw	0
   415  0057                     STR_7:	
   416  0057  3430               	retlw	48	;'0'
   417  0058  3430               	retlw	48	;'0'
   418  0059  3400               	retlw	0
   419  005A                     STR_17:	
   420  005A  3431               	retlw	49	;'1'
   421  005B  3430               	retlw	48	;'0'
   422  005C  3400               	retlw	0
   423  005D                     STR_8:	
   424  005D  3430               	retlw	48	;'0'
   425  005E  3431               	retlw	49	;'1'
   426  005F  3400               	retlw	0
   427  0060                     STR_18:	
   428  0060  3431               	retlw	49	;'1'
   429  0061  3431               	retlw	49	;'1'
   430  0062  3400               	retlw	0
   431  0063                     STR_9:	
   432  0063  3430               	retlw	48	;'0'
   433  0064  3432               	retlw	50	;'2'
   434  0065  3400               	retlw	0
   435  0066                     STR_19:	
   436  0066  3431               	retlw	49	;'1'
   437  0067  3432               	retlw	50	;'2'
   438  0068  3400               	retlw	0
   439  0069                     STR_10:	
   440  0069  3430               	retlw	48	;'0'
   441  006A  3433               	retlw	51	;'3'
   442  006B  3400               	retlw	0
   443  006C                     STR_20:	
   444  006C  3431               	retlw	49	;'1'
   445  006D  3433               	retlw	51	;'3'
   446  006E  3400               	retlw	0
   447  006F                     STR_11:	
   448  006F  3430               	retlw	48	;'0'
   449  0070  3434               	retlw	52	;'4'
   450  0071  3400               	retlw	0
   451  0072                     STR_21:	
   452  0072  3431               	retlw	49	;'1'
   453  0073  3434               	retlw	52	;'4'
   454  0074  3400               	retlw	0
   455  0075                     STR_12:	
   456  0075  3430               	retlw	48	;'0'
   457  0076  3435               	retlw	53	;'5'
   458  0077  3400               	retlw	0
   459  0078                     STR_22:	
   460  0078  3431               	retlw	49	;'1'
   461  0079  3435               	retlw	53	;'5'
   462  007A  3400               	retlw	0
   463  007B                     STR_13:	
   464  007B  3430               	retlw	48	;'0'
   465  007C  3436               	retlw	54	;'6'
   466  007D  3400               	retlw	0
   467  007E                     STR_23:	
   468  007E  3431               	retlw	49	;'1'
   469  007F  3436               	retlw	54	;'6'
   470  0080  3400               	retlw	0
   471  0081                     STR_14:	
   472  0081  3430               	retlw	48	;'0'
   473  0082  3437               	retlw	55	;'7'
   474  0083  3400               	retlw	0
   475  0084                     STR_15:	
   476  0084  3430               	retlw	48	;'0'
   477  0085  3438               	retlw	56	;'8'
   478  0086  3400               	retlw	0
   479  0087                     STR_16:	
   480  0087  3430               	retlw	48	;'0'
   481  0088  3439               	retlw	57	;'9'
   482  0089  3400               	retlw	0
   483  0058                     
   484                           ; #config settings
   485  0000                     
   486                           	psect	cinit
   487  07F3                     start_initialization:	
   488  07F3                     __initialization:	
   489                           
   490                           ; Clear objects allocated to BANK0
   491  07F3  1383               	bcf	3,7	;select IRP bank0
   492  07F4  3020               	movlw	low __pbssBANK0
   493  07F5  0084               	movwf	4
   494  07F6  303C               	movlw	low (__pbssBANK0+28)
   495  07F7  120A  158A  26A1  120A  118A  	fcall	clear_ram0
   496  07FC                     end_of_initialization:	
   497                           ;End of C runtime variable initialization code
   498                           
   499  07FC                     __end_of__initialization:	
   500  07FC  0183               	clrf	3
   501  07FD  120A  118A  2A70   	ljmp	_main	;jump to C main() function
   502                           
   503                           	psect	bssBANK0
   504  0020                     __pbssBANK0:	
   505  0020                     FOTORESIS@F1358:	
   506  0020                     	ds	6
   507  0026                     POTENCIOMETRO@F1348:	
   508  0026                     	ds	6
   509  002C                     _dus:	
   510  002C                     	ds	2
   511  002E                     _dms:	
   512  002E                     	ds	2
   513  0030                     _b:	
   514  0030                     	ds	2
   515  0032                     _OTRO:	
   516  0032                     	ds	2
   517  0034                     _CONT:	
   518  0034                     	ds	2
   519  0036                     _FOTO:	
   520  0036                     	ds	2
   521  0038                     _POT:	
   522  0038                     	ds	2
   523  003A                     _a:	
   524  003A                     	ds	2
   525                           
   526                           	psect	clrtext
   527  0EA1                     clear_ram0:	
   528                           ;	Called with FSR containing the base address, and
   529                           ;	W with the last address+1
   530                           
   531  0EA1  0064               	clrwdt	;clear the watchdog before getting into this loop
   532  0EA2                     clrloop0:	
   533  0EA2  0180               	clrf	0	;clear RAM location pointed to by FSR
   534  0EA3  0A84               	incf	4,f	;increment pointer
   535  0EA4  0604               	xorwf	4,w	;XOR with final address
   536  0EA5  1903               	btfsc	3,2	;have we reached the end yet?
   537  0EA6  3400               	retlw	0	;all done for this memory range, return
   538  0EA7  0604               	xorwf	4,w	;XOR again to restore value
   539  0EA8  2EA2               	goto	clrloop0	;do the next byte
   540                           
   541                           	psect	cstackCOMMON
   542  0070                     __pcstackCOMMON:	
   543  0070                     ?_LCDvalue:	
   544  0070                     ?_clean:	
   545                           ; 1 bytes @ 0x0
   546                           
   547  0070                     ?_delay_ms:	
   548                           ; 1 bytes @ 0x0
   549                           
   550  0070                     ?_POTENCIOMETRO:	
   551                           ; 1 bytes @ 0x0
   552                           
   553  0070                     ?_FOTORESIS:	
   554                           ; 1 bytes @ 0x0
   555                           
   556  0070                     ?_UART_Data_Ready:	
   557                           ; 1 bytes @ 0x0
   558                           
   559  0070                     ??_UART_Data_Ready:	
   560                           ; 1 bytes @ 0x0
   561                           
   562  0070                     ?_UART_Read:	
   563                           ; 1 bytes @ 0x0
   564                           
   565  0070                     ??_UART_Read:	
   566                           ; 1 bytes @ 0x0
   567                           
   568  0070                     ?_main:	
   569                           ; 1 bytes @ 0x0
   570                           
   571  0070                     ?_delay_us:	
   572                           ; 1 bytes @ 0x0
   573                           
   574  0070                     ?_Tiempocontrol:	
   575                           ; 1 bytes @ 0x0
   576                           
   577  0070                     ?_Control:	
   578                           ; 1 bytes @ 0x0
   579                           
   580  0070                     ?_ON:	
   581                           ; 1 bytes @ 0x0
   582                           
   583  0070                     ?_impresion:	
   584                           ; 1 bytes @ 0x0
   585                           
   586  0070                     ?___awmod:	
   587                           ; 1 bytes @ 0x0
   588                           
   589  0070                     ?___aldiv:	
   590                           ; 2 bytes @ 0x0
   591                           
   592  0070                     delay_ms@dms:	
   593                           ; 4 bytes @ 0x0
   594                           
   595  0070                     delay_us@dus:	
   596                           ; 2 bytes @ 0x0
   597                           
   598  0070                     ___awmod@divisor:	
   599                           ; 2 bytes @ 0x0
   600                           
   601  0070                     ___aldiv@divisor:	
   602                           ; 2 bytes @ 0x0
   603                           
   604                           
   605                           ; 4 bytes @ 0x0
   606  0070                     	ds	2
   607  0072                     ??_delay_ms:	
   608  0072                     ??_delay_us:	
   609                           ; 1 bytes @ 0x2
   610                           
   611  0072                     ___awmod@dividend:	
   612                           ; 1 bytes @ 0x2
   613                           
   614                           
   615                           ; 2 bytes @ 0x2
   616  0072                     	ds	1
   617  0073                     delay_ms@i:	
   618  0073                     delay_us@i:	
   619                           ; 2 bytes @ 0x3
   620                           
   621                           
   622                           ; 2 bytes @ 0x3
   623  0073                     	ds	1
   624  0074                     ??___awmod:	
   625  0074                     ___aldiv@dividend:	
   626                           ; 1 bytes @ 0x4
   627                           
   628                           
   629                           ; 4 bytes @ 0x4
   630  0074                     	ds	1
   631  0075                     ??_Tiempocontrol:	
   632  0075                     ??_ON:	
   633                           ; 1 bytes @ 0x5
   634                           
   635  0075                     ON@valor1:	
   636                           ; 1 bytes @ 0x5
   637                           
   638  0075                     ___awmod@counter:	
   639                           ; 1 bytes @ 0x5
   640                           
   641  0075                     delay_ms@j:	
   642                           ; 1 bytes @ 0x5
   643                           
   644                           
   645                           ; 2 bytes @ 0x5
   646  0075                     	ds	1
   647  0076                     ??_impresion:	
   648  0076                     ___awmod@sign:	
   649                           ; 1 bytes @ 0x6
   650                           
   651                           
   652                           ; 1 bytes @ 0x6
   653  0076                     	ds	1
   654  0077                     ??_Control:	
   655  0077                     ?___awdiv:	
   656                           ; 1 bytes @ 0x7
   657                           
   658  0077                     Control@valor:	
   659                           ; 2 bytes @ 0x7
   660                           
   661  0077                     impresion@valor:	
   662                           ; 1 bytes @ 0x7
   663                           
   664  0077                     ___awdiv@divisor:	
   665                           ; 1 bytes @ 0x7
   666                           
   667                           
   668                           ; 2 bytes @ 0x7
   669  0077                     	ds	1
   670  0078                     ??_LCDvalue:	
   671  0078                     ??_clean:	
   672                           ; 1 bytes @ 0x8
   673                           
   674  0078                     ?_lcddirection:	
   675                           ; 1 bytes @ 0x8
   676                           
   677  0078                     ??___aldiv:	
   678                           ; 1 bytes @ 0x8
   679                           
   680  0078                     lcddirection@x:	
   681                           ; 1 bytes @ 0x8
   682                           
   683                           
   684                           ; 2 bytes @ 0x8
   685  0078                     	ds	1
   686  0079                     UART_Init@x:	
   687  0079                     ___awdiv@dividend:	
   688                           ; 2 bytes @ 0x9
   689                           
   690                           
   691                           ; 2 bytes @ 0x9
   692  0079                     	ds	1
   693  007A                     lcddirection@y:	
   694                           
   695                           ; 2 bytes @ 0xA
   696  007A                     	ds	1
   697  007B                     ??___awdiv:	
   698                           
   699                           ; 1 bytes @ 0xB
   700  007B                     	ds	1
   701  007C                     lcddirection@valor:	
   702                           
   703                           ; 1 bytes @ 0xC
   704  007C                     	ds	1
   705  007D                     ??_lcddirection:	
   706                           
   707                           ; 1 bytes @ 0xD
   708  007D                     	ds	1
   709                           
   710                           	psect	cstackBANK0
   711  003C                     __pcstackBANK0:	
   712  003C                     lcddirection@posicion:	
   713  003C                     ___aldiv@counter:	
   714                           ; 1 bytes @ 0x0
   715                           
   716  003C                     ___awdiv@counter:	
   717                           ; 1 bytes @ 0x0
   718                           
   719                           
   720                           ; 1 bytes @ 0x0
   721  003C                     	ds	1
   722  003D                     ___aldiv@sign:	
   723  003D                     ___awdiv@sign:	
   724                           ; 1 bytes @ 0x1
   725                           
   726                           
   727                           ; 1 bytes @ 0x1
   728  003D                     	ds	1
   729  003E                     ___awdiv@quotient:	
   730  003E                     ___aldiv@quotient:	
   731                           ; 2 bytes @ 0x2
   732                           
   733                           
   734                           ; 4 bytes @ 0x2
   735  003E                     	ds	2
   736  0040                     ??_POTENCIOMETRO:	
   737  0040                     ??_FOTORESIS:	
   738                           ; 1 bytes @ 0x4
   739                           
   740                           
   741                           ; 1 bytes @ 0x4
   742  0040                     	ds	2
   743  0042                     ?_UART_Init:	
   744  0042                     UART_Init@baudrate:	
   745                           ; 1 bytes @ 0x6
   746                           
   747                           
   748                           ; 4 bytes @ 0x6
   749  0042                     	ds	3
   750  0045                     POTENCIOMETRO@numero:	
   751  0045                     FOTORESIS@numero:	
   752                           ; 6 bytes @ 0x9
   753                           
   754                           
   755                           ; 6 bytes @ 0x9
   756  0045                     	ds	1
   757  0046                     ??_UART_Init:	
   758                           
   759                           ; 1 bytes @ 0xA
   760  0046                     	ds	5
   761  004B                     POTENCIOMETRO@unidades:	
   762  004B                     FOTORESIS@unidades:	
   763                           ; 1 bytes @ 0xF
   764                           
   765                           
   766                           ; 1 bytes @ 0xF
   767  004B                     	ds	1
   768  004C                     POTENCIOMETRO@decimas:	
   769  004C                     FOTORESIS@decimas:	
   770                           ; 1 bytes @ 0x10
   771                           
   772                           
   773                           ; 1 bytes @ 0x10
   774  004C                     	ds	1
   775  004D                     POTENCIOMETRO@centesimas:	
   776  004D                     FOTORESIS@centesimas:	
   777                           ; 1 bytes @ 0x11
   778                           
   779                           
   780                           ; 1 bytes @ 0x11
   781  004D                     	ds	1
   782  004E                     _POTENCIOMETRO$885:	
   783  004E                     _FOTORESIS$886:	
   784                           ; 2 bytes @ 0x12
   785                           
   786                           
   787                           ; 2 bytes @ 0x12
   788  004E                     	ds	2
   789  0050                     POTENCIOMETRO@i:	
   790  0050                     FOTORESIS@i:	
   791                           ; 2 bytes @ 0x14
   792                           
   793                           
   794                           ; 2 bytes @ 0x14
   795  0050                     	ds	2
   796  0052                     POTENCIOMETRO@result:	
   797  0052                     FOTORESIS@result:	
   798                           ; 1 bytes @ 0x16
   799                           
   800                           
   801                           ; 1 bytes @ 0x16
   802  0052                     	ds	1
   803  0053                     POTENCIOMETRO@valor:	
   804  0053                     FOTORESIS@valor:	
   805                           ; 1 bytes @ 0x17
   806                           
   807                           
   808                           ; 1 bytes @ 0x17
   809  0053                     	ds	1
   810  0054                     POTENCIOMETRO@coordenada:	
   811  0054                     FOTORESIS@coordenada:	
   812                           ; 1 bytes @ 0x18
   813                           
   814                           
   815                           ; 1 bytes @ 0x18
   816  0054                     	ds	1
   817  0055                     ??_main:	
   818                           
   819                           ; 1 bytes @ 0x19
   820  0055                     	ds	3
   821                           
   822                           	psect	maintext
   823  0270                     __pmaintext:	
   824 ;;
   825 ;;Main: autosize = 0, tempsize = 3, incstack = 0, save=0
   826 ;;
   827 ;; *************** function _main *****************
   828 ;; Defined at:
   829 ;;		line 36 in file "slave.c"
   830 ;; Parameters:    Size  Location     Type
   831 ;;		None
   832 ;; Auto vars:     Size  Location     Type
   833 ;;		None
   834 ;; Return value:  Size  Location     Type
   835 ;;                  1    wreg      void 
   836 ;; Registers used:
   837 ;;		wreg, fsr0l, fsr0h, status,2, status,0, btemp+1, pclath, cstack
   838 ;; Tracked objects:
   839 ;;		On entry : B00/0
   840 ;;		On exit  : 0/0
   841 ;;		Unchanged: 0/0
   842 ;; Data sizes:     COMMON   BANK0   BANK1   BANK3   BANK2
   843 ;;      Params:         0       0       0       0       0
   844 ;;      Locals:         0       0       0       0       0
   845 ;;      Temps:          0       3       0       0       0
   846 ;;      Totals:         0       3       0       0       0
   847 ;;Total ram usage:        3 bytes
   848 ;; Hardware stack levels required when called:    6
   849 ;; This function calls:
   850 ;;		_FOTORESIS
   851 ;;		_LCDvalue
   852 ;;		_POTENCIOMETRO
   853 ;;		_UART_Data_Ready
   854 ;;		_UART_Init
   855 ;;		_UART_Read
   856 ;;		_clean
   857 ;;		_delay_ms
   858 ;;		_lcddirection
   859 ;; This function is called by:
   860 ;;		Startup code after reset
   861 ;; This function uses a non-reentrant model
   862 ;;
   863                           
   864                           
   865                           ;psect for function _main
   866  0270                     _main:	
   867  0270                     l1810:	
   868                           ;incstack = 0
   869                           ; Regs used in _main: [wreg-fsr0h+status,2+status,0+btemp+1+pclath+cstack]
   870                           
   871                           
   872                           ;slave.c: 38:    LCDvalue();
   873  0270  120A  158A  274E  120A  118A  	fcall	_LCDvalue
   874                           
   875                           ;slave.c: 39:    clean();
   876  0275  120A  158A  2692  120A  118A  	fcall	_clean
   877  027A                     l1812:	
   878                           
   879                           ;slave.c: 40:    lcddirection(0,1,"Estuardo Mancio");
   880  027A  3000               	movlw	0
   881  027B  00F8               	movwf	lcddirection@x
   882  027C  00F9               	movwf	lcddirection@x+1
   883  027D  3001               	movlw	1
   884  027E  00FA               	movwf	lcddirection@y
   885  027F  3000               	movlw	0
   886  0280  00FB               	movwf	lcddirection@y+1
   887  0281  3033               	movlw	(low ((STR_1-__stringbase)| (0+32768)))& (0+255)
   888  0282  1283               	bcf	3,5	;RP0=0, select bank0
   889  0283  1303               	bcf	3,6	;RP1=0, select bank0
   890  0284  00D5               	movwf	??_main
   891  0285  0855               	movf	??_main,w
   892  0286  00FC               	movwf	lcddirection@valor
   893  0287  120A  158A  2723  120A  118A  	fcall	_lcddirection
   894  028C                     l1814:	
   895                           
   896                           ;slave.c: 41:    lcddirection(5,2,"18027");
   897  028C  3005               	movlw	5
   898  028D  00F8               	movwf	lcddirection@x
   899  028E  3000               	movlw	0
   900  028F  00F9               	movwf	lcddirection@x+1
   901  0290  3002               	movlw	2
   902  0291  00FA               	movwf	lcddirection@y
   903  0292  3000               	movlw	0
   904  0293  00FB               	movwf	lcddirection@y+1
   905  0294  3049               	movlw	(low ((STR_2-__stringbase)| (0+32768)))& (0+255)
   906  0295  1283               	bcf	3,5	;RP0=0, select bank0
   907  0296  1303               	bcf	3,6	;RP1=0, select bank0
   908  0297  00D5               	movwf	??_main
   909  0298  0855               	movf	??_main,w
   910  0299  00FC               	movwf	lcddirection@valor
   911  029A  120A  158A  2723  120A  118A  	fcall	_lcddirection
   912                           
   913                           ;slave.c: 42:    delay_ms(130);
   914  029F  3082               	movlw	130
   915  02A0  00F0               	movwf	delay_ms@dms
   916  02A1  3000               	movlw	0
   917  02A2  00F1               	movwf	delay_ms@dms+1
   918  02A3  120A  158A  277A  120A  118A  	fcall	_delay_ms
   919  02A8                     l1816:	
   920                           
   921                           ;slave.c: 43:    lcddirection(0,1,"LABORATORIO 5  ");
   922  02A8  3000               	movlw	0
   923  02A9  00F8               	movwf	lcddirection@x
   924  02AA  00F9               	movwf	lcddirection@x+1
   925  02AB  3001               	movlw	1
   926  02AC  00FA               	movwf	lcddirection@y
   927  02AD  3000               	movlw	0
   928  02AE  00FB               	movwf	lcddirection@y+1
   929  02AF  3023               	movlw	(low ((STR_3-__stringbase)| (0+32768)))& (0+255)
   930  02B0  1283               	bcf	3,5	;RP0=0, select bank0
   931  02B1  1303               	bcf	3,6	;RP1=0, select bank0
   932  02B2  00D5               	movwf	??_main
   933  02B3  0855               	movf	??_main,w
   934  02B4  00FC               	movwf	lcddirection@valor
   935  02B5  120A  158A  2723  120A  118A  	fcall	_lcddirection
   936  02BA                     l1818:	
   937                           
   938                           ;slave.c: 44:    lcddirection(5,2,"I2C  ");
   939  02BA  3005               	movlw	5
   940  02BB  00F8               	movwf	lcddirection@x
   941  02BC  3000               	movlw	0
   942  02BD  00F9               	movwf	lcddirection@x+1
   943  02BE  3002               	movlw	2
   944  02BF  00FA               	movwf	lcddirection@y
   945  02C0  3000               	movlw	0
   946  02C1  00FB               	movwf	lcddirection@y+1
   947  02C2  3043               	movlw	(low ((STR_4-__stringbase)| (0+32768)))& (0+255)
   948  02C3  1283               	bcf	3,5	;RP0=0, select bank0
   949  02C4  1303               	bcf	3,6	;RP1=0, select bank0
   950  02C5  00D5               	movwf	??_main
   951  02C6  0855               	movf	??_main,w
   952  02C7  00FC               	movwf	lcddirection@valor
   953  02C8  120A  158A  2723  120A  118A  	fcall	_lcddirection
   954                           
   955                           ;slave.c: 45:    delay_ms(150);
   956  02CD  3096               	movlw	150
   957  02CE  00F0               	movwf	delay_ms@dms
   958  02CF  3000               	movlw	0
   959  02D0  00F1               	movwf	delay_ms@dms+1
   960  02D1  120A  158A  277A  120A  118A  	fcall	_delay_ms
   961  02D6                     l1820:	
   962                           
   963                           ;slave.c: 46:    lcddirection(0,1,"ADC  COUNTER FOT");
   964  02D6  3000               	movlw	0
   965  02D7  00F8               	movwf	lcddirection@x
   966  02D8  00F9               	movwf	lcddirection@x+1
   967  02D9  3001               	movlw	1
   968  02DA  00FA               	movwf	lcddirection@y
   969  02DB  3000               	movlw	0
   970  02DC  00FB               	movwf	lcddirection@y+1
   971  02DD  3001               	movlw	(low ((STR_5-__stringbase)| (0+32768)))& (0+255)
   972  02DE  1283               	bcf	3,5	;RP0=0, select bank0
   973  02DF  1303               	bcf	3,6	;RP1=0, select bank0
   974  02E0  00D5               	movwf	??_main
   975  02E1  0855               	movf	??_main,w
   976  02E2  00FC               	movwf	lcddirection@valor
   977  02E3  120A  158A  2723  120A  118A  	fcall	_lcddirection
   978  02E8                     l1822:	
   979                           
   980                           ;slave.c: 47:    lcddirection(0,2," .  V       .  V");
   981  02E8  3000               	movlw	0
   982  02E9  00F8               	movwf	lcddirection@x
   983  02EA  00F9               	movwf	lcddirection@x+1
   984  02EB  3002               	movlw	2
   985  02EC  00FA               	movwf	lcddirection@y
   986  02ED  3000               	movlw	0
   987  02EE  00FB               	movwf	lcddirection@y+1
   988  02EF  3012               	movlw	(low ((STR_6-__stringbase)| (0+32768)))& (0+255)
   989  02F0  1283               	bcf	3,5	;RP0=0, select bank0
   990  02F1  1303               	bcf	3,6	;RP1=0, select bank0
   991  02F2  00D5               	movwf	??_main
   992  02F3  0855               	movf	??_main,w
   993  02F4  00FC               	movwf	lcddirection@valor
   994  02F5  120A  158A  2723  120A  118A  	fcall	_lcddirection
   995  02FA                     l1824:	
   996                           
   997                           ;slave.c: 48:    UART_Init(9600);
   998  02FA  3000               	movlw	0
   999  02FB  1283               	bcf	3,5	;RP0=0, select bank0
  1000  02FC  1303               	bcf	3,6	;RP1=0, select bank0
  1001  02FD  00C5               	movwf	UART_Init@baudrate+3
  1002  02FE  3000               	movlw	0
  1003  02FF  00C4               	movwf	UART_Init@baudrate+2
  1004  0300  3025               	movlw	37
  1005  0301  00C3               	movwf	UART_Init@baudrate+1
  1006  0302  3080               	movlw	128
  1007  0303  00C2               	movwf	UART_Init@baudrate
  1008  0304  120A  118A  2196  120A  118A  	fcall	_UART_Init
  1009  0309                     l1826:	
  1010                           
  1011                           ;slave.c: 49:    b = 0;
  1012  0309  1283               	bcf	3,5	;RP0=0, select bank0
  1013  030A  1303               	bcf	3,6	;RP1=0, select bank0
  1014  030B  01B0               	clrf	_b
  1015  030C  01B1               	clrf	_b+1
  1016  030D                     l1828:	
  1017                           
  1018                           ;slave.c: 52:       if(UART_Data_Ready()){
  1019  030D  120A  118A  208A  120A  118A  	fcall	_UART_Data_Ready
  1020  0312  3A00               	xorlw	0
  1021  0313  1903               	skipnz
  1022  0314  2B16               	goto	u1581
  1023  0315  2B17               	goto	u1580
  1024  0316                     u1581:	
  1025  0316  2B33               	goto	l1834
  1026  0317                     u1580:	
  1027  0317                     l1830:	
  1028                           
  1029                           ;slave.c: 53:         a = UART_Read();
  1030  0317  120A  158A  2699  120A  118A  	fcall	_UART_Read
  1031  031C  1283               	bcf	3,5	;RP0=0, select bank0
  1032  031D  1303               	bcf	3,6	;RP1=0, select bank0
  1033  031E  00D5               	movwf	??_main
  1034  031F  01D6               	clrf	??_main+1
  1035  0320  0855               	movf	??_main,w
  1036  0321  00BA               	movwf	_a
  1037  0322  0856               	movf	??_main+1,w
  1038  0323  00BB               	movwf	_a+1
  1039  0324                     l1832:	
  1040                           
  1041                           ;slave.c: 55:        _delay((unsigned long)((100)*(8000000/4000.0)));
  1042  0324  3002               	movlw	2
  1043  0325  1283               	bcf	3,5	;RP0=0, select bank0
  1044  0326  1303               	bcf	3,6	;RP1=0, select bank0
  1045  0327  00D7               	movwf	??_main+2
  1046  0328  3004               	movlw	4
  1047  0329  00D6               	movwf	??_main+1
  1048  032A  30B9               	movlw	185
  1049  032B  00D5               	movwf	??_main
  1050  032C                     u1637:	
  1051  032C  0BD5               	decfsz	??_main,f
  1052  032D  2B2C               	goto	u1637
  1053  032E  0BD6               	decfsz	??_main+1,f
  1054  032F  2B2C               	goto	u1637
  1055  0330  0BD7               	decfsz	??_main+2,f
  1056  0331  2B2C               	goto	u1637
  1057  0332  2B33               	nop2
  1058  0333                     l1834:	
  1059                           
  1060                           ;slave.c: 57:       if (b == 0){
  1061  0333  1283               	bcf	3,5	;RP0=0, select bank0
  1062  0334  1303               	bcf	3,6	;RP1=0, select bank0
  1063  0335  0830               	movf	_b,w
  1064  0336  0431               	iorwf	_b+1,w
  1065  0337  1D03               	btfss	3,2
  1066  0338  2B3A               	goto	u1591
  1067  0339  2B3B               	goto	u1590
  1068  033A                     u1591:	
  1069  033A  2B46               	goto	l1838
  1070  033B                     u1590:	
  1071  033B                     l1836:	
  1072                           
  1073                           ;slave.c: 58:           POT = a;
  1074  033B  083B               	movf	_a+1,w
  1075  033C  00B9               	movwf	_POT+1
  1076  033D  083A               	movf	_a,w
  1077  033E  00B8               	movwf	_POT
  1078                           
  1079                           ;slave.c: 59:           b++;
  1080  033F  3001               	movlw	1
  1081  0340  07B0               	addwf	_b,f
  1082  0341  1803               	skipnc
  1083  0342  0AB1               	incf	_b+1,f
  1084  0343  3000               	movlw	0
  1085  0344  07B1               	addwf	_b+1,f
  1086                           
  1087                           ;slave.c: 60:       }
  1088  0345  2B77               	goto	l1852
  1089  0346                     l1838:	
  1090  0346  0330               	decf	_b,w
  1091  0347  0431               	iorwf	_b+1,w
  1092  0348  1D03               	btfss	3,2
  1093  0349  2B4B               	goto	u1601
  1094  034A  2B4C               	goto	u1600
  1095  034B                     u1601:	
  1096  034B  2B57               	goto	l1842
  1097  034C                     u1600:	
  1098  034C                     l1840:	
  1099                           
  1100                           ;slave.c: 62:           FOTO = a;
  1101  034C  083B               	movf	_a+1,w
  1102  034D  00B7               	movwf	_FOTO+1
  1103  034E  083A               	movf	_a,w
  1104  034F  00B6               	movwf	_FOTO
  1105                           
  1106                           ;slave.c: 63:           b++;
  1107  0350  3001               	movlw	1
  1108  0351  07B0               	addwf	_b,f
  1109  0352  1803               	skipnc
  1110  0353  0AB1               	incf	_b+1,f
  1111  0354  3000               	movlw	0
  1112  0355  07B1               	addwf	_b+1,f
  1113                           
  1114                           ;slave.c: 64:       }
  1115  0356  2B77               	goto	l1852
  1116  0357                     l1842:	
  1117  0357  3002               	movlw	2
  1118  0358  0630               	xorwf	_b,w
  1119  0359  0431               	iorwf	_b+1,w
  1120  035A  1D03               	btfss	3,2
  1121  035B  2B5D               	goto	u1611
  1122  035C  2B5E               	goto	u1610
  1123  035D                     u1611:	
  1124  035D  2B69               	goto	l1846
  1125  035E                     u1610:	
  1126  035E                     l1844:	
  1127                           
  1128                           ;slave.c: 66:           CONT = a;
  1129  035E  083B               	movf	_a+1,w
  1130  035F  00B5               	movwf	_CONT+1
  1131  0360  083A               	movf	_a,w
  1132  0361  00B4               	movwf	_CONT
  1133                           
  1134                           ;slave.c: 67:           b++;
  1135  0362  3001               	movlw	1
  1136  0363  07B0               	addwf	_b,f
  1137  0364  1803               	skipnc
  1138  0365  0AB1               	incf	_b+1,f
  1139  0366  3000               	movlw	0
  1140  0367  07B1               	addwf	_b+1,f
  1141                           
  1142                           ;slave.c: 68:       }
  1143  0368  2B77               	goto	l1852
  1144  0369                     l1846:	
  1145  0369  3003               	movlw	3
  1146  036A  0630               	xorwf	_b,w
  1147  036B  0431               	iorwf	_b+1,w
  1148  036C  1D03               	btfss	3,2
  1149  036D  2B6F               	goto	u1621
  1150  036E  2B70               	goto	u1620
  1151  036F                     u1621:	
  1152  036F  2B77               	goto	l95
  1153  0370                     u1620:	
  1154  0370                     l1848:	
  1155                           
  1156                           ;slave.c: 70:           OTRO = a;
  1157  0370  083B               	movf	_a+1,w
  1158  0371  00B3               	movwf	_OTRO+1
  1159  0372  083A               	movf	_a,w
  1160  0373  00B2               	movwf	_OTRO
  1161  0374                     l1850:	
  1162                           
  1163                           ;slave.c: 71:           b = 0;
  1164  0374  01B0               	clrf	_b
  1165  0375  01B1               	clrf	_b+1
  1166  0376  2B77               	goto	l1852
  1167  0377                     l95:	
  1168  0377                     l1852:	
  1169                           
  1170                           ;slave.c: 73:       POTENCIOMETRO(POT);
  1171  0377  0838               	movf	_POT,w
  1172  0378  120A  118A  23A2  120A  118A  	fcall	_POTENCIOMETRO
  1173  037D                     l1854:	
  1174                           
  1175                           ;slave.c: 74:       FOTORESIS(FOTO);
  1176  037D  1283               	bcf	3,5	;RP0=0, select bank0
  1177  037E  1303               	bcf	3,6	;RP1=0, select bank0
  1178  037F  0836               	movf	_FOTO,w
  1179  0380  120A  118A  25C9  120A  118A  	fcall	_FOTORESIS
  1180  0385                     l1856:	
  1181                           
  1182                           ;slave.c: 75:       delay_ms(20);
  1183  0385  3014               	movlw	20
  1184  0386  00F0               	movwf	delay_ms@dms
  1185  0387  3000               	movlw	0
  1186  0388  00F1               	movwf	delay_ms@dms+1
  1187  0389  120A  158A  277A  120A  118A  	fcall	_delay_ms
  1188  038E                     l1858:	
  1189                           
  1190                           ;slave.c: 76:       POTENCIOMETRO(CONT);
  1191  038E  1283               	bcf	3,5	;RP0=0, select bank0
  1192  038F  1303               	bcf	3,6	;RP1=0, select bank0
  1193  0390  0834               	movf	_CONT,w
  1194  0391  120A  118A  23A2  120A  118A  	fcall	_POTENCIOMETRO
  1195  0396                     l1860:	
  1196                           
  1197                           ;slave.c: 77:       FOTORESIS(OTRO);
  1198  0396  1283               	bcf	3,5	;RP0=0, select bank0
  1199  0397  1303               	bcf	3,6	;RP1=0, select bank0
  1200  0398  0832               	movf	_OTRO,w
  1201  0399  120A  118A  25C9  120A  118A  	fcall	_FOTORESIS
  1202  039E  2B0D               	goto	l1828
  1203  039F  120A  118A  2800   	ljmp	start
  1204  03A2                     __end_of_main:	
  1205                           
  1206                           	psect	text1
  1207  0E92                     __ptext1:	
  1208 ;; *************** function _clean *****************
  1209 ;; Defined at:
  1210 ;;		line 257 in file "LIBRERIALCD.c"
  1211 ;; Parameters:    Size  Location     Type
  1212 ;;		None
  1213 ;; Auto vars:     Size  Location     Type
  1214 ;;		None
  1215 ;; Return value:  Size  Location     Type
  1216 ;;                  1    wreg      void 
  1217 ;; Registers used:
  1218 ;;		wreg, status,2, status,0, btemp+1, pclath, cstack
  1219 ;; Tracked objects:
  1220 ;;		On entry : 0/0
  1221 ;;		On exit  : 0/0
  1222 ;;		Unchanged: 0/0
  1223 ;; Data sizes:     COMMON   BANK0   BANK1   BANK3   BANK2
  1224 ;;      Params:         0       0       0       0       0
  1225 ;;      Locals:         0       0       0       0       0
  1226 ;;      Temps:          0       0       0       0       0
  1227 ;;      Totals:         0       0       0       0       0
  1228 ;;Total ram usage:        0 bytes
  1229 ;; Hardware stack levels used:    1
  1230 ;; Hardware stack levels required when called:    3
  1231 ;; This function calls:
  1232 ;;		_Control
  1233 ;; This function is called by:
  1234 ;;		_main
  1235 ;; This function uses a non-reentrant model
  1236 ;;
  1237                           
  1238                           
  1239                           ;psect for function _clean
  1240  0E92                     _clean:	
  1241  0E92                     l1620:	
  1242                           ;incstack = 0
  1243                           ; Regs used in _clean: [wreg+status,2+status,0+btemp+1+pclath+cstack]
  1244                           
  1245                           
  1246                           ;LIBRERIALCD.c: 258:     Control(0x01);
  1247  0E92  3001               	movlw	1
  1248  0E93  120A  158A  26A9  120A  158A  	fcall	_Control
  1249  0E98                     l220:	
  1250  0E98  0008               	return
  1251  0E99                     __end_of_clean:	
  1252                           
  1253                           	psect	text2
  1254  0E99                     __ptext2:	
  1255 ;; *************** function _UART_Read *****************
  1256 ;; Defined at:
  1257 ;;		line 33 in file "./uart.h"
  1258 ;; Parameters:    Size  Location     Type
  1259 ;;		None
  1260 ;; Auto vars:     Size  Location     Type
  1261 ;;		None
  1262 ;; Return value:  Size  Location     Type
  1263 ;;                  1    wreg      unsigned char 
  1264 ;; Registers used:
  1265 ;;		wreg
  1266 ;; Tracked objects:
  1267 ;;		On entry : 0/0
  1268 ;;		On exit  : 0/0
  1269 ;;		Unchanged: 0/0
  1270 ;; Data sizes:     COMMON   BANK0   BANK1   BANK3   BANK2
  1271 ;;      Params:         0       0       0       0       0
  1272 ;;      Locals:         0       0       0       0       0
  1273 ;;      Temps:          0       0       0       0       0
  1274 ;;      Totals:         0       0       0       0       0
  1275 ;;Total ram usage:        0 bytes
  1276 ;; Hardware stack levels used:    1
  1277 ;; This function calls:
  1278 ;;		Nothing
  1279 ;; This function is called by:
  1280 ;;		_main
  1281 ;;		_UART_Read_Text
  1282 ;; This function uses a non-reentrant model
  1283 ;;
  1284                           
  1285                           
  1286                           ;psect for function _UART_Read
  1287  0E99                     _UART_Read:	
  1288  0E99                     l1596:	
  1289                           ;incstack = 0
  1290                           ; Regs used in _UART_Read: [wreg]
  1291                           
  1292  0E99                     l52:	
  1293                           ;./uart.h: 36:   while(!RCIF);
  1294                           
  1295  0E99  1283               	bcf	3,5	;RP0=0, select bank0
  1296  0E9A  1303               	bcf	3,6	;RP1=0, select bank0
  1297  0E9B  1E8C               	btfss	12,5	;volatile
  1298  0E9C  2E9E               	goto	u1241
  1299  0E9D  2E9F               	goto	u1240
  1300  0E9E                     u1241:	
  1301  0E9E  2E99               	goto	l52
  1302  0E9F                     u1240:	
  1303  0E9F                     l1598:	
  1304                           
  1305                           ;./uart.h: 37:   return RCREG;
  1306  0E9F  081A               	movf	26,w	;volatile
  1307  0EA0                     l55:	
  1308  0EA0  0008               	return
  1309  0EA1                     __end_of_UART_Read:	
  1310                           
  1311                           	psect	text3
  1312  0196                     __ptext3:	
  1313 ;; *************** function _UART_Init *****************
  1314 ;; Defined at:
  1315 ;;		line 1 in file "./uart.h"
  1316 ;; Parameters:    Size  Location     Type
  1317 ;;  baudrate        4    6[BANK0 ] const long 
  1318 ;; Auto vars:     Size  Location     Type
  1319 ;;  x               2    9[COMMON] unsigned int 
  1320 ;; Return value:  Size  Location     Type
  1321 ;;                  1    wreg      unsigned char 
  1322 ;; Registers used:
  1323 ;;		wreg, status,2, status,0, pclath, cstack
  1324 ;; Tracked objects:
  1325 ;;		On entry : 0/0
  1326 ;;		On exit  : 0/0
  1327 ;;		Unchanged: 0/0
  1328 ;; Data sizes:     COMMON   BANK0   BANK1   BANK3   BANK2
  1329 ;;      Params:         0       4       0       0       0
  1330 ;;      Locals:         2       0       0       0       0
  1331 ;;      Temps:          0      12       0       0       0
  1332 ;;      Totals:         2      16       0       0       0
  1333 ;;Total ram usage:       18 bytes
  1334 ;; Hardware stack levels used:    1
  1335 ;; Hardware stack levels required when called:    1
  1336 ;; This function calls:
  1337 ;;		___aldiv
  1338 ;; This function is called by:
  1339 ;;		_main
  1340 ;; This function uses a non-reentrant model
  1341 ;;
  1342                           
  1343                           
  1344                           ;psect for function _UART_Init
  1345  0196                     _UART_Init:	
  1346  0196                     l1566:	
  1347                           ;incstack = 0
  1348                           ; Regs used in _UART_Init: [wreg+status,2+status,0+pclath+cstack]
  1349                           
  1350                           
  1351                           ;./uart.h: 1: char UART_Init(const long int baudrate);./uart.h: 2: {;./uart.h: 3:  unsig
      +                          ned int x;;./uart.h: 4:  x = (8000000 - baudrate*64)/(baudrate*64);
  1352  0196  1283               	bcf	3,5	;RP0=0, select bank0
  1353  0197  1303               	bcf	3,6	;RP1=0, select bank0
  1354  0198  0842               	movf	UART_Init@baudrate,w
  1355  0199  00C6               	movwf	??_UART_Init
  1356  019A  0843               	movf	UART_Init@baudrate+1,w
  1357  019B  00C7               	movwf	??_UART_Init+1
  1358  019C  0844               	movf	UART_Init@baudrate+2,w
  1359  019D  00C8               	movwf	??_UART_Init+2
  1360  019E  0845               	movf	UART_Init@baudrate+3,w
  1361  019F  00C9               	movwf	??_UART_Init+3
  1362  01A0  3006               	movlw	6
  1363  01A1                     u1165:	
  1364  01A1  1003               	clrc
  1365  01A2  0DC6               	rlf	??_UART_Init,f
  1366  01A3  0DC7               	rlf	??_UART_Init+1,f
  1367  01A4  0DC8               	rlf	??_UART_Init+2,f
  1368  01A5  0DC9               	rlf	??_UART_Init+3,f
  1369  01A6                     u1160:	
  1370  01A6  3EFF               	addlw	-1
  1371  01A7  1D03               	skipz
  1372  01A8  29A1               	goto	u1165
  1373  01A9  0849               	movf	??_UART_Init+3,w
  1374  01AA  00F3               	movwf	___aldiv@divisor+3
  1375  01AB  0848               	movf	??_UART_Init+2,w
  1376  01AC  00F2               	movwf	___aldiv@divisor+2
  1377  01AD  0847               	movf	??_UART_Init+1,w
  1378  01AE  00F1               	movwf	___aldiv@divisor+1
  1379  01AF  0846               	movf	??_UART_Init,w
  1380  01B0  00F0               	movwf	___aldiv@divisor
  1381  01B1  0842               	movf	UART_Init@baudrate,w
  1382  01B2  00CA               	movwf	??_UART_Init+4
  1383  01B3  0843               	movf	UART_Init@baudrate+1,w
  1384  01B4  00CB               	movwf	??_UART_Init+5
  1385  01B5  0844               	movf	UART_Init@baudrate+2,w
  1386  01B6  00CC               	movwf	??_UART_Init+6
  1387  01B7  0845               	movf	UART_Init@baudrate+3,w
  1388  01B8  00CD               	movwf	??_UART_Init+7
  1389  01B9  3006               	movlw	6
  1390  01BA                     u1175:	
  1391  01BA  1003               	clrc
  1392  01BB  0DCA               	rlf	??_UART_Init+4,f
  1393  01BC  0DCB               	rlf	??_UART_Init+5,f
  1394  01BD  0DCC               	rlf	??_UART_Init+6,f
  1395  01BE  0DCD               	rlf	??_UART_Init+7,f
  1396  01BF                     u1170:	
  1397  01BF  3EFF               	addlw	-1
  1398  01C0  1D03               	skipz
  1399  01C1  29BA               	goto	u1175
  1400  01C2  3000               	movlw	0
  1401  01C3  00CE               	movwf	??_UART_Init+8
  1402  01C4  3012               	movlw	18
  1403  01C5  00CF               	movwf	??_UART_Init+9
  1404  01C6  307A               	movlw	122
  1405  01C7  00D0               	movwf	??_UART_Init+10
  1406  01C8  3000               	movlw	0
  1407  01C9  00D1               	movwf	??_UART_Init+11
  1408  01CA  084A               	movf	??_UART_Init+4,w
  1409  01CB  02CE               	subwf	??_UART_Init+8,f
  1410  01CC  084B               	movf	??_UART_Init+5,w
  1411  01CD  1C03               	skipc
  1412  01CE  0F4B               	incfsz	??_UART_Init+5,w
  1413  01CF  29D1               	goto	u1181
  1414  01D0  29D2               	goto	u1182
  1415  01D1                     u1181:	
  1416  01D1  02CF               	subwf	??_UART_Init+9,f
  1417  01D2                     u1182:	
  1418  01D2  084C               	movf	??_UART_Init+6,w
  1419  01D3  1C03               	skipc
  1420  01D4  0F4C               	incfsz	??_UART_Init+6,w
  1421  01D5  29D7               	goto	u1183
  1422  01D6  29D8               	goto	u1184
  1423  01D7                     u1183:	
  1424  01D7  02D0               	subwf	??_UART_Init+10,f
  1425  01D8                     u1184:	
  1426  01D8  084D               	movf	??_UART_Init+7,w
  1427  01D9  1C03               	skipc
  1428  01DA  0F4D               	incfsz	??_UART_Init+7,w
  1429  01DB  29DD               	goto	u1185
  1430  01DC  29DE               	goto	u1186
  1431  01DD                     u1185:	
  1432  01DD  02D1               	subwf	??_UART_Init+11,f
  1433  01DE                     u1186:	
  1434  01DE  0851               	movf	??_UART_Init+11,w
  1435  01DF  00F7               	movwf	___aldiv@dividend+3
  1436  01E0  0850               	movf	??_UART_Init+10,w
  1437  01E1  00F6               	movwf	___aldiv@dividend+2
  1438  01E2  084F               	movf	??_UART_Init+9,w
  1439  01E3  00F5               	movwf	___aldiv@dividend+1
  1440  01E4  084E               	movf	??_UART_Init+8,w
  1441  01E5  00F4               	movwf	___aldiv@dividend
  1442  01E6  120A  118A  20F9  120A  118A  	fcall	___aldiv
  1443  01EB  0871               	movf	?___aldiv+1,w
  1444  01EC  00FA               	movwf	UART_Init@x+1
  1445  01ED  0870               	movf	?___aldiv,w
  1446  01EE  00F9               	movwf	UART_Init@x
  1447  01EF                     l1568:	
  1448                           
  1449                           ;./uart.h: 5:  if(x>255)
  1450  01EF  3001               	movlw	1
  1451  01F0  027A               	subwf	UART_Init@x+1,w
  1452  01F1  3000               	movlw	0
  1453  01F2  1903               	skipnz
  1454  01F3  0279               	subwf	UART_Init@x,w
  1455  01F4  1C03               	skipc
  1456  01F5  29F7               	goto	u1191
  1457  01F6  29F8               	goto	u1190
  1458  01F7                     u1191:	
  1459  01F7  2A54               	goto	l1574
  1460  01F8                     u1190:	
  1461  01F8                     l1570:	
  1462                           
  1463                           ;./uart.h: 6:  {;./uart.h: 7:   x = (8000000 - baudrate*16)/(baudrate*16);
  1464  01F8  1283               	bcf	3,5	;RP0=0, select bank0
  1465  01F9  1303               	bcf	3,6	;RP1=0, select bank0
  1466  01FA  0842               	movf	UART_Init@baudrate,w
  1467  01FB  00C6               	movwf	??_UART_Init
  1468  01FC  0843               	movf	UART_Init@baudrate+1,w
  1469  01FD  00C7               	movwf	??_UART_Init+1
  1470  01FE  0844               	movf	UART_Init@baudrate+2,w
  1471  01FF  00C8               	movwf	??_UART_Init+2
  1472  0200  0845               	movf	UART_Init@baudrate+3,w
  1473  0201  00C9               	movwf	??_UART_Init+3
  1474  0202  3004               	movlw	4
  1475  0203                     u1205:	
  1476  0203  1003               	clrc
  1477  0204  0DC6               	rlf	??_UART_Init,f
  1478  0205  0DC7               	rlf	??_UART_Init+1,f
  1479  0206  0DC8               	rlf	??_UART_Init+2,f
  1480  0207  0DC9               	rlf	??_UART_Init+3,f
  1481  0208                     u1200:	
  1482  0208  3EFF               	addlw	-1
  1483  0209  1D03               	skipz
  1484  020A  2A03               	goto	u1205
  1485  020B  0849               	movf	??_UART_Init+3,w
  1486  020C  00F3               	movwf	___aldiv@divisor+3
  1487  020D  0848               	movf	??_UART_Init+2,w
  1488  020E  00F2               	movwf	___aldiv@divisor+2
  1489  020F  0847               	movf	??_UART_Init+1,w
  1490  0210  00F1               	movwf	___aldiv@divisor+1
  1491  0211  0846               	movf	??_UART_Init,w
  1492  0212  00F0               	movwf	___aldiv@divisor
  1493  0213  0842               	movf	UART_Init@baudrate,w
  1494  0214  00CA               	movwf	??_UART_Init+4
  1495  0215  0843               	movf	UART_Init@baudrate+1,w
  1496  0216  00CB               	movwf	??_UART_Init+5
  1497  0217  0844               	movf	UART_Init@baudrate+2,w
  1498  0218  00CC               	movwf	??_UART_Init+6
  1499  0219  0845               	movf	UART_Init@baudrate+3,w
  1500  021A  00CD               	movwf	??_UART_Init+7
  1501  021B  3004               	movlw	4
  1502  021C                     u1215:	
  1503  021C  1003               	clrc
  1504  021D  0DCA               	rlf	??_UART_Init+4,f
  1505  021E  0DCB               	rlf	??_UART_Init+5,f
  1506  021F  0DCC               	rlf	??_UART_Init+6,f
  1507  0220  0DCD               	rlf	??_UART_Init+7,f
  1508  0221                     u1210:	
  1509  0221  3EFF               	addlw	-1
  1510  0222  1D03               	skipz
  1511  0223  2A1C               	goto	u1215
  1512  0224  3000               	movlw	0
  1513  0225  00CE               	movwf	??_UART_Init+8
  1514  0226  3012               	movlw	18
  1515  0227  00CF               	movwf	??_UART_Init+9
  1516  0228  307A               	movlw	122
  1517  0229  00D0               	movwf	??_UART_Init+10
  1518  022A  3000               	movlw	0
  1519  022B  00D1               	movwf	??_UART_Init+11
  1520  022C  084A               	movf	??_UART_Init+4,w
  1521  022D  02CE               	subwf	??_UART_Init+8,f
  1522  022E  084B               	movf	??_UART_Init+5,w
  1523  022F  1C03               	skipc
  1524  0230  0F4B               	incfsz	??_UART_Init+5,w
  1525  0231  2A33               	goto	u1221
  1526  0232  2A34               	goto	u1222
  1527  0233                     u1221:	
  1528  0233  02CF               	subwf	??_UART_Init+9,f
  1529  0234                     u1222:	
  1530  0234  084C               	movf	??_UART_Init+6,w
  1531  0235  1C03               	skipc
  1532  0236  0F4C               	incfsz	??_UART_Init+6,w
  1533  0237  2A39               	goto	u1223
  1534  0238  2A3A               	goto	u1224
  1535  0239                     u1223:	
  1536  0239  02D0               	subwf	??_UART_Init+10,f
  1537  023A                     u1224:	
  1538  023A  084D               	movf	??_UART_Init+7,w
  1539  023B  1C03               	skipc
  1540  023C  0F4D               	incfsz	??_UART_Init+7,w
  1541  023D  2A3F               	goto	u1225
  1542  023E  2A40               	goto	u1226
  1543  023F                     u1225:	
  1544  023F  02D1               	subwf	??_UART_Init+11,f
  1545  0240                     u1226:	
  1546  0240  0851               	movf	??_UART_Init+11,w
  1547  0241  00F7               	movwf	___aldiv@dividend+3
  1548  0242  0850               	movf	??_UART_Init+10,w
  1549  0243  00F6               	movwf	___aldiv@dividend+2
  1550  0244  084F               	movf	??_UART_Init+9,w
  1551  0245  00F5               	movwf	___aldiv@dividend+1
  1552  0246  084E               	movf	??_UART_Init+8,w
  1553  0247  00F4               	movwf	___aldiv@dividend
  1554  0248  120A  118A  20F9  120A  118A  	fcall	___aldiv
  1555  024D  0871               	movf	?___aldiv+1,w
  1556  024E  00FA               	movwf	UART_Init@x+1
  1557  024F  0870               	movf	?___aldiv,w
  1558  0250  00F9               	movwf	UART_Init@x
  1559  0251                     l1572:	
  1560                           
  1561                           ;./uart.h: 8:   BRGH = 1;
  1562  0251  1683               	bsf	3,5	;RP0=1, select bank1
  1563  0252  1303               	bcf	3,6	;RP1=0, select bank1
  1564  0253  1518               	bsf	24,2	;volatile
  1565  0254                     l1574:	
  1566                           
  1567                           ;./uart.h: 10:  if(x<256)
  1568  0254  3001               	movlw	1
  1569  0255  027A               	subwf	UART_Init@x+1,w
  1570  0256  3000               	movlw	0
  1571  0257  1903               	skipnz
  1572  0258  0279               	subwf	UART_Init@x,w
  1573  0259  1803               	skipnc
  1574  025A  2A5C               	goto	u1231
  1575  025B  2A5D               	goto	u1230
  1576  025C                     u1231:	
  1577  025C  2A6F               	goto	l43
  1578  025D                     u1230:	
  1579  025D                     l1576:	
  1580                           
  1581                           ;./uart.h: 11:  {;./uart.h: 12:    SPBRG = x;
  1582  025D  0879               	movf	UART_Init@x,w
  1583  025E  1683               	bsf	3,5	;RP0=1, select bank1
  1584  025F  1303               	bcf	3,6	;RP1=0, select bank1
  1585  0260  0099               	movwf	25	;volatile
  1586  0261                     l1578:	
  1587                           
  1588                           ;./uart.h: 13:    SYNC = 0;
  1589  0261  1218               	bcf	24,4	;volatile
  1590  0262                     l1580:	
  1591                           
  1592                           ;./uart.h: 14:    SPEN = 1;
  1593  0262  1283               	bcf	3,5	;RP0=0, select bank0
  1594  0263  1303               	bcf	3,6	;RP1=0, select bank0
  1595  0264  1798               	bsf	24,7	;volatile
  1596  0265                     l1582:	
  1597                           
  1598                           ;./uart.h: 15:           TRISC7 = 1;
  1599  0265  1683               	bsf	3,5	;RP0=1, select bank1
  1600  0266  1303               	bcf	3,6	;RP1=0, select bank1
  1601  0267  1787               	bsf	7,7	;volatile
  1602  0268                     l1584:	
  1603                           
  1604                           ;./uart.h: 16:           TRISC6 = 1;
  1605  0268  1707               	bsf	7,6	;volatile
  1606  0269                     l1586:	
  1607                           
  1608                           ;./uart.h: 17:           CREN = 1;
  1609  0269  1283               	bcf	3,5	;RP0=0, select bank0
  1610  026A  1303               	bcf	3,6	;RP1=0, select bank0
  1611  026B  1618               	bsf	24,4	;volatile
  1612  026C                     l1588:	
  1613                           
  1614                           ;./uart.h: 18:           TXEN = 1;
  1615  026C  1683               	bsf	3,5	;RP0=1, select bank1
  1616  026D  1303               	bcf	3,6	;RP1=0, select bank1
  1617  026E  1698               	bsf	24,5	;volatile
  1618  026F                     l43:	
  1619  026F  0008               	return
  1620  0270                     __end_of_UART_Init:	
  1621                           
  1622                           	psect	text4
  1623  00F9                     __ptext4:	
  1624 ;; *************** function ___aldiv *****************
  1625 ;; Defined at:
  1626 ;;		line 5 in file "C:\Program Files (x86)\Microchip\xc8\v2.10\pic\sources\c90\common\aldiv.c"
  1627 ;; Parameters:    Size  Location     Type
  1628 ;;  divisor         4    0[COMMON] long 
  1629 ;;  dividend        4    4[COMMON] long 
  1630 ;; Auto vars:     Size  Location     Type
  1631 ;;  quotient        4    2[BANK0 ] long 
  1632 ;;  sign            1    1[BANK0 ] unsigned char 
  1633 ;;  counter         1    0[BANK0 ] unsigned char 
  1634 ;; Return value:  Size  Location     Type
  1635 ;;                  4    0[COMMON] long 
  1636 ;; Registers used:
  1637 ;;		wreg, status,2, status,0
  1638 ;; Tracked objects:
  1639 ;;		On entry : 0/0
  1640 ;;		On exit  : 0/0
  1641 ;;		Unchanged: 0/0
  1642 ;; Data sizes:     COMMON   BANK0   BANK1   BANK3   BANK2
  1643 ;;      Params:         8       0       0       0       0
  1644 ;;      Locals:         0       6       0       0       0
  1645 ;;      Temps:          1       0       0       0       0
  1646 ;;      Totals:         9       6       0       0       0
  1647 ;;Total ram usage:       15 bytes
  1648 ;; Hardware stack levels used:    1
  1649 ;; This function calls:
  1650 ;;		Nothing
  1651 ;; This function is called by:
  1652 ;;		_UART_Init
  1653 ;; This function uses a non-reentrant model
  1654 ;;
  1655                           
  1656                           
  1657                           ;psect for function ___aldiv
  1658  00F9                     ___aldiv:	
  1659  00F9                     l1444:	
  1660                           ;incstack = 0
  1661                           ; Regs used in ___aldiv: [wreg+status,2+status,0]
  1662                           
  1663  00F9  1283               	bcf	3,5	;RP0=0, select bank0
  1664  00FA  1303               	bcf	3,6	;RP1=0, select bank0
  1665  00FB  01BD               	clrf	___aldiv@sign
  1666  00FC                     l1446:	
  1667  00FC  1FF3               	btfss	___aldiv@divisor+3,7
  1668  00FD  28FF               	goto	u871
  1669  00FE  2900               	goto	u870
  1670  00FF                     u871:	
  1671  00FF  290D               	goto	l371
  1672  0100                     u870:	
  1673  0100                     l1448:	
  1674  0100  09F0               	comf	___aldiv@divisor,f
  1675  0101  09F1               	comf	___aldiv@divisor+1,f
  1676  0102  09F2               	comf	___aldiv@divisor+2,f
  1677  0103  09F3               	comf	___aldiv@divisor+3,f
  1678  0104  0AF0               	incf	___aldiv@divisor,f
  1679  0105  1903               	skipnz
  1680  0106  0AF1               	incf	___aldiv@divisor+1,f
  1681  0107  1903               	skipnz
  1682  0108  0AF2               	incf	___aldiv@divisor+2,f
  1683  0109  1903               	skipnz
  1684  010A  0AF3               	incf	___aldiv@divisor+3,f
  1685  010B  01BD               	clrf	___aldiv@sign
  1686  010C  0ABD               	incf	___aldiv@sign,f
  1687  010D                     l371:	
  1688  010D  1FF7               	btfss	___aldiv@dividend+3,7
  1689  010E  2910               	goto	u881
  1690  010F  2911               	goto	u880
  1691  0110                     u881:	
  1692  0110  2920               	goto	l1454
  1693  0111                     u880:	
  1694  0111                     l1450:	
  1695  0111  09F4               	comf	___aldiv@dividend,f
  1696  0112  09F5               	comf	___aldiv@dividend+1,f
  1697  0113  09F6               	comf	___aldiv@dividend+2,f
  1698  0114  09F7               	comf	___aldiv@dividend+3,f
  1699  0115  0AF4               	incf	___aldiv@dividend,f
  1700  0116  1903               	skipnz
  1701  0117  0AF5               	incf	___aldiv@dividend+1,f
  1702  0118  1903               	skipnz
  1703  0119  0AF6               	incf	___aldiv@dividend+2,f
  1704  011A  1903               	skipnz
  1705  011B  0AF7               	incf	___aldiv@dividend+3,f
  1706  011C                     l1452:	
  1707  011C  3001               	movlw	1
  1708  011D  00F8               	movwf	??___aldiv
  1709  011E  0878               	movf	??___aldiv,w
  1710  011F  06BD               	xorwf	___aldiv@sign,f
  1711  0120                     l1454:	
  1712  0120  3000               	movlw	0
  1713  0121  00C1               	movwf	___aldiv@quotient+3
  1714  0122  3000               	movlw	0
  1715  0123  00C0               	movwf	___aldiv@quotient+2
  1716  0124  3000               	movlw	0
  1717  0125  00BF               	movwf	___aldiv@quotient+1
  1718  0126  3000               	movlw	0
  1719  0127  00BE               	movwf	___aldiv@quotient
  1720  0128                     l1456:	
  1721  0128  0873               	movf	___aldiv@divisor+3,w
  1722  0129  0472               	iorwf	___aldiv@divisor+2,w
  1723  012A  0471               	iorwf	___aldiv@divisor+1,w
  1724  012B  0470               	iorwf	___aldiv@divisor,w
  1725  012C  1903               	skipnz
  1726  012D  292F               	goto	u891
  1727  012E  2930               	goto	u890
  1728  012F                     u891:	
  1729  012F  297D               	goto	l1476
  1730  0130                     u890:	
  1731  0130                     l1458:	
  1732  0130  01BC               	clrf	___aldiv@counter
  1733  0131  0ABC               	incf	___aldiv@counter,f
  1734  0132  2940               	goto	l1462
  1735  0133                     l1460:	
  1736  0133  3001               	movlw	1
  1737  0134  00F8               	movwf	??___aldiv
  1738  0135                     u905:	
  1739  0135  1003               	clrc
  1740  0136  0DF0               	rlf	___aldiv@divisor,f
  1741  0137  0DF1               	rlf	___aldiv@divisor+1,f
  1742  0138  0DF2               	rlf	___aldiv@divisor+2,f
  1743  0139  0DF3               	rlf	___aldiv@divisor+3,f
  1744  013A  0BF8               	decfsz	??___aldiv,f
  1745  013B  2935               	goto	u905
  1746  013C  3001               	movlw	1
  1747  013D  00F8               	movwf	??___aldiv
  1748  013E  0878               	movf	??___aldiv,w
  1749  013F  07BC               	addwf	___aldiv@counter,f
  1750  0140                     l1462:	
  1751  0140  1FF3               	btfss	___aldiv@divisor+3,7
  1752  0141  2943               	goto	u911
  1753  0142  2944               	goto	u910
  1754  0143                     u911:	
  1755  0143  2933               	goto	l1460
  1756  0144                     u910:	
  1757  0144                     l1464:	
  1758  0144  3001               	movlw	1
  1759  0145  00F8               	movwf	??___aldiv
  1760  0146                     u925:	
  1761  0146  1003               	clrc
  1762  0147  0DBE               	rlf	___aldiv@quotient,f
  1763  0148  0DBF               	rlf	___aldiv@quotient+1,f
  1764  0149  0DC0               	rlf	___aldiv@quotient+2,f
  1765  014A  0DC1               	rlf	___aldiv@quotient+3,f
  1766  014B  0BF8               	decfsz	??___aldiv,f
  1767  014C  2946               	goto	u925
  1768  014D                     l1466:	
  1769  014D  0873               	movf	___aldiv@divisor+3,w
  1770  014E  0277               	subwf	___aldiv@dividend+3,w
  1771  014F  1D03               	skipz
  1772  0150  295B               	goto	u935
  1773  0151  0872               	movf	___aldiv@divisor+2,w
  1774  0152  0276               	subwf	___aldiv@dividend+2,w
  1775  0153  1D03               	skipz
  1776  0154  295B               	goto	u935
  1777  0155  0871               	movf	___aldiv@divisor+1,w
  1778  0156  0275               	subwf	___aldiv@dividend+1,w
  1779  0157  1D03               	skipz
  1780  0158  295B               	goto	u935
  1781  0159  0870               	movf	___aldiv@divisor,w
  1782  015A  0274               	subwf	___aldiv@dividend,w
  1783  015B                     u935:	
  1784  015B  1C03               	skipc
  1785  015C  295E               	goto	u931
  1786  015D  295F               	goto	u930
  1787  015E                     u931:	
  1788  015E  296E               	goto	l1472
  1789  015F                     u930:	
  1790  015F                     l1468:	
  1791  015F  0870               	movf	___aldiv@divisor,w
  1792  0160  02F4               	subwf	___aldiv@dividend,f
  1793  0161  0871               	movf	___aldiv@divisor+1,w
  1794  0162  1C03               	skipc
  1795  0163  0F71               	incfsz	___aldiv@divisor+1,w
  1796  0164  02F5               	subwf	___aldiv@dividend+1,f
  1797  0165  0872               	movf	___aldiv@divisor+2,w
  1798  0166  1C03               	skipc
  1799  0167  0F72               	incfsz	___aldiv@divisor+2,w
  1800  0168  02F6               	subwf	___aldiv@dividend+2,f
  1801  0169  0873               	movf	___aldiv@divisor+3,w
  1802  016A  1C03               	skipc
  1803  016B  0F73               	incfsz	___aldiv@divisor+3,w
  1804  016C  02F7               	subwf	___aldiv@dividend+3,f
  1805  016D                     l1470:	
  1806  016D  143E               	bsf	___aldiv@quotient,0
  1807  016E                     l1472:	
  1808  016E  3001               	movlw	1
  1809  016F                     u945:	
  1810  016F  1003               	clrc
  1811  0170  0CF3               	rrf	___aldiv@divisor+3,f
  1812  0171  0CF2               	rrf	___aldiv@divisor+2,f
  1813  0172  0CF1               	rrf	___aldiv@divisor+1,f
  1814  0173  0CF0               	rrf	___aldiv@divisor,f
  1815  0174  3EFF               	addlw	-1
  1816  0175  1D03               	skipz
  1817  0176  296F               	goto	u945
  1818  0177                     l1474:	
  1819  0177  3001               	movlw	1
  1820  0178  02BC               	subwf	___aldiv@counter,f
  1821  0179  1D03               	btfss	3,2
  1822  017A  297C               	goto	u951
  1823  017B  297D               	goto	u950
  1824  017C                     u951:	
  1825  017C  2944               	goto	l1464
  1826  017D                     u950:	
  1827  017D                     l1476:	
  1828  017D  083D               	movf	___aldiv@sign,w
  1829  017E  1903               	btfsc	3,2
  1830  017F  2981               	goto	u961
  1831  0180  2982               	goto	u960
  1832  0181                     u961:	
  1833  0181  298D               	goto	l1480
  1834  0182                     u960:	
  1835  0182                     l1478:	
  1836  0182  09BE               	comf	___aldiv@quotient,f
  1837  0183  09BF               	comf	___aldiv@quotient+1,f
  1838  0184  09C0               	comf	___aldiv@quotient+2,f
  1839  0185  09C1               	comf	___aldiv@quotient+3,f
  1840  0186  0ABE               	incf	___aldiv@quotient,f
  1841  0187  1903               	skipnz
  1842  0188  0ABF               	incf	___aldiv@quotient+1,f
  1843  0189  1903               	skipnz
  1844  018A  0AC0               	incf	___aldiv@quotient+2,f
  1845  018B  1903               	skipnz
  1846  018C  0AC1               	incf	___aldiv@quotient+3,f
  1847  018D                     l1480:	
  1848  018D  0841               	movf	___aldiv@quotient+3,w
  1849  018E  00F3               	movwf	?___aldiv+3
  1850  018F  0840               	movf	___aldiv@quotient+2,w
  1851  0190  00F2               	movwf	?___aldiv+2
  1852  0191  083F               	movf	___aldiv@quotient+1,w
  1853  0192  00F1               	movwf	?___aldiv+1
  1854  0193  083E               	movf	___aldiv@quotient,w
  1855  0194  00F0               	movwf	?___aldiv
  1856  0195                     l381:	
  1857  0195  0008               	return
  1858  0196                     __end_of___aldiv:	
  1859                           
  1860                           	psect	text5
  1861  008A                     __ptext5:	
  1862 ;; *************** function _UART_Data_Ready *****************
  1863 ;; Defined at:
  1864 ;;		line 29 in file "./uart.h"
  1865 ;; Parameters:    Size  Location     Type
  1866 ;;		None
  1867 ;; Auto vars:     Size  Location     Type
  1868 ;;		None
  1869 ;; Return value:  Size  Location     Type
  1870 ;;                  1    wreg      unsigned char 
  1871 ;; Registers used:
  1872 ;;		wreg
  1873 ;; Tracked objects:
  1874 ;;		On entry : 0/0
  1875 ;;		On exit  : 0/0
  1876 ;;		Unchanged: 0/0
  1877 ;; Data sizes:     COMMON   BANK0   BANK1   BANK3   BANK2
  1878 ;;      Params:         0       0       0       0       0
  1879 ;;      Locals:         0       0       0       0       0
  1880 ;;      Temps:          0       0       0       0       0
  1881 ;;      Totals:         0       0       0       0       0
  1882 ;;Total ram usage:        0 bytes
  1883 ;; Hardware stack levels used:    1
  1884 ;; This function calls:
  1885 ;;		Nothing
  1886 ;; This function is called by:
  1887 ;;		_main
  1888 ;; This function uses a non-reentrant model
  1889 ;;
  1890                           
  1891                           
  1892                           ;psect for function _UART_Data_Ready
  1893  008A                     _UART_Data_Ready:	
  1894  008A                     l1592:	
  1895                           ;incstack = 0
  1896                           ; Regs used in _UART_Data_Ready: [wreg]
  1897                           
  1898                           
  1899                           ;./uart.h: 31:    return RCIF;
  1900  008A  3000               	movlw	0
  1901  008B  1283               	bcf	3,5	;RP0=0, select bank0
  1902  008C  1303               	bcf	3,6	;RP1=0, select bank0
  1903  008D  1A8C               	btfsc	12,5	;volatile
  1904  008E  3001               	movlw	1
  1905  008F                     l49:	
  1906  008F  0008               	return
  1907  0090                     __end_of_UART_Data_Ready:	
  1908                           
  1909                           	psect	text6
  1910  03A2                     __ptext6:	
  1911 ;; *************** function _POTENCIOMETRO *****************
  1912 ;; Defined at:
  1913 ;;		line 150 in file "LIBRERIALCD.c"
  1914 ;; Parameters:    Size  Location     Type
  1915 ;;  result          1    wreg     unsigned char 
  1916 ;; Auto vars:     Size  Location     Type
  1917 ;;  result          1   22[BANK0 ] unsigned char 
  1918 ;;  i               2   20[BANK0 ] int 
  1919 ;;  numero          6    9[BANK0 ] int [3]
  1920 ;;  coordenada      1   24[BANK0 ] unsigned char 
  1921 ;;  valor           1   23[BANK0 ] unsigned char 
  1922 ;;  centesimas      1   17[BANK0 ] unsigned char 
  1923 ;;  decimas         1   16[BANK0 ] unsigned char 
  1924 ;;  unidades        1   15[BANK0 ] unsigned char 
  1925 ;; Return value:  Size  Location     Type
  1926 ;;                  1    wreg      void 
  1927 ;; Registers used:
  1928 ;;		wreg, fsr0l, fsr0h, status,2, status,0, btemp+1, pclath, cstack
  1929 ;; Tracked objects:
  1930 ;;		On entry : 0/0
  1931 ;;		On exit  : 0/0
  1932 ;;		Unchanged: 0/0
  1933 ;; Data sizes:     COMMON   BANK0   BANK1   BANK3   BANK2
  1934 ;;      Params:         0       0       0       0       0
  1935 ;;      Locals:         0      16       0       0       0
  1936 ;;      Temps:          0       5       0       0       0
  1937 ;;      Totals:         0      21       0       0       0
  1938 ;;Total ram usage:       21 bytes
  1939 ;; Hardware stack levels used:    1
  1940 ;; Hardware stack levels required when called:    5
  1941 ;; This function calls:
  1942 ;;		___awdiv
  1943 ;;		___awmod
  1944 ;;		_lcddirection
  1945 ;; This function is called by:
  1946 ;;		_main
  1947 ;; This function uses a non-reentrant model
  1948 ;;
  1949                           
  1950                           
  1951                           ;psect for function _POTENCIOMETRO
  1952  03A2                     _POTENCIOMETRO:	
  1953                           
  1954                           ;incstack = 0
  1955                           ; Regs used in _POTENCIOMETRO: [wreg-fsr0h+status,2+status,0+btemp+1+pclath+cstack]
  1956                           ;POTENCIOMETRO@result stored from wreg
  1957  03A2  1283               	bcf	3,5	;RP0=0, select bank0
  1958  03A3  1303               	bcf	3,6	;RP1=0, select bank0
  1959  03A4  00D2               	movwf	POTENCIOMETRO@result
  1960  03A5                     l1622:	
  1961                           
  1962                           ;LIBRERIALCD.c: 151:     if (result>=250){
  1963  03A5  30FA               	movlw	250
  1964  03A6  0252               	subwf	POTENCIOMETRO@result,w
  1965  03A7  1C03               	skipc
  1966  03A8  2BAA               	goto	u1251
  1967  03A9  2BAB               	goto	u1250
  1968  03AA                     u1251:	
  1969  03AA  2BAF               	goto	l1626
  1970  03AB                     u1250:	
  1971  03AB                     l1624:	
  1972                           
  1973                           ;LIBRERIALCD.c: 152:         result = 250;
  1974  03AB  30FA               	movlw	250
  1975  03AC  00C0               	movwf	??_POTENCIOMETRO
  1976  03AD  0840               	movf	??_POTENCIOMETRO,w
  1977  03AE  00D2               	movwf	POTENCIOMETRO@result
  1978  03AF                     l1626:	
  1979  03AF                     l1628:	
  1980                           
  1981                           ;LIBRERIALCD.c: 155:     uint8_t coordenada = 0;
  1982  03AF  01D4               	clrf	POTENCIOMETRO@coordenada
  1983  03B0                     l1630:	
  1984                           
  1985                           ;LIBRERIALCD.c: 156:     uint8_t unidades = (result - (result % 50))/50;
  1986  03B0  3032               	movlw	50
  1987  03B1  00F7               	movwf	___awdiv@divisor
  1988  03B2  3000               	movlw	0
  1989  03B3  00F8               	movwf	___awdiv@divisor+1
  1990  03B4  3032               	movlw	50
  1991  03B5  00F0               	movwf	___awmod@divisor
  1992  03B6  3000               	movlw	0
  1993  03B7  00F1               	movwf	___awmod@divisor+1
  1994  03B8  0852               	movf	POTENCIOMETRO@result,w
  1995  03B9  00C0               	movwf	??_POTENCIOMETRO
  1996  03BA  01C1               	clrf	??_POTENCIOMETRO+1
  1997  03BB  0840               	movf	??_POTENCIOMETRO,w
  1998  03BC  00F2               	movwf	___awmod@dividend
  1999  03BD  0841               	movf	??_POTENCIOMETRO+1,w
  2000  03BE  00F3               	movwf	___awmod@dividend+1
  2001  03BF  120A  158A  27A7  120A  118A  	fcall	___awmod
  2002  03C4  1283               	bcf	3,5	;RP0=0, select bank0
  2003  03C5  1303               	bcf	3,6	;RP1=0, select bank0
  2004  03C6  0852               	movf	POTENCIOMETRO@result,w
  2005  03C7  00C2               	movwf	??_POTENCIOMETRO+2
  2006  03C8  0870               	movf	?___awmod,w
  2007  03C9  0242               	subwf	??_POTENCIOMETRO+2,w
  2008  03CA  00F9               	movwf	___awdiv@dividend
  2009  03CB  0971               	comf	?___awmod+1,w
  2010  03CC  1803               	skipnc
  2011  03CD  3E01               	addlw	1
  2012  03CE  00FA               	movwf	___awdiv@dividend+1
  2013  03CF  120A  118A  2090  120A  118A  	fcall	___awdiv
  2014  03D4  0877               	movf	?___awdiv,w
  2015  03D5  1283               	bcf	3,5	;RP0=0, select bank0
  2016  03D6  1303               	bcf	3,6	;RP1=0, select bank0
  2017  03D7  00C3               	movwf	??_POTENCIOMETRO+3
  2018  03D8  0843               	movf	??_POTENCIOMETRO+3,w
  2019  03D9  00CB               	movwf	POTENCIOMETRO@unidades
  2020  03DA                     l1632:	
  2021                           
  2022                           ;LIBRERIALCD.c: 157:     uint8_t decimas = ((result %50) -((result %50)%5))/5;
  2023  03DA  0852               	movf	POTENCIOMETRO@result,w
  2024  03DB  00C0               	movwf	??_POTENCIOMETRO
  2025  03DC  01C1               	clrf	??_POTENCIOMETRO+1
  2026  03DD  0840               	movf	??_POTENCIOMETRO,w
  2027  03DE  00F2               	movwf	___awmod@dividend
  2028  03DF  0841               	movf	??_POTENCIOMETRO+1,w
  2029  03E0  00F3               	movwf	___awmod@dividend+1
  2030  03E1  3032               	movlw	50
  2031  03E2  00F0               	movwf	___awmod@divisor
  2032  03E3  3000               	movlw	0
  2033  03E4  00F1               	movwf	___awmod@divisor+1
  2034  03E5  120A  158A  27A7  120A  118A  	fcall	___awmod
  2035  03EA  0871               	movf	?___awmod+1,w
  2036  03EB  1283               	bcf	3,5	;RP0=0, select bank0
  2037  03EC  1303               	bcf	3,6	;RP1=0, select bank0
  2038  03ED  00CF               	movwf	_POTENCIOMETRO$885+1
  2039  03EE  0870               	movf	?___awmod,w
  2040  03EF  00CE               	movwf	_POTENCIOMETRO$885
  2041  03F0                     l1634:	
  2042                           
  2043                           ;LIBRERIALCD.c: 157:     uint8_t decimas = ((result %50) -((result %50)%5))/5;
  2044  03F0  3005               	movlw	5
  2045  03F1  00F7               	movwf	___awdiv@divisor
  2046  03F2  3000               	movlw	0
  2047  03F3  00F8               	movwf	___awdiv@divisor+1
  2048  03F4  3032               	movlw	50
  2049  03F5  00F0               	movwf	___awmod@divisor
  2050  03F6  3000               	movlw	0
  2051  03F7  00F1               	movwf	___awmod@divisor+1
  2052  03F8  0852               	movf	POTENCIOMETRO@result,w
  2053  03F9  00C0               	movwf	??_POTENCIOMETRO
  2054  03FA  01C1               	clrf	??_POTENCIOMETRO+1
  2055  03FB  0840               	movf	??_POTENCIOMETRO,w
  2056  03FC  00F2               	movwf	___awmod@dividend
  2057  03FD  0841               	movf	??_POTENCIOMETRO+1,w
  2058  03FE  00F3               	movwf	___awmod@dividend+1
  2059  03FF  120A  158A  27A7  120A  118A  	fcall	___awmod
  2060  0404  0870               	movf	?___awmod,w
  2061  0405  1283               	bcf	3,5	;RP0=0, select bank0
  2062  0406  1303               	bcf	3,6	;RP1=0, select bank0
  2063  0407  00C2               	movwf	??_POTENCIOMETRO+2
  2064  0408  0871               	movf	?___awmod+1,w
  2065  0409  00C3               	movwf	??_POTENCIOMETRO+3
  2066  040A  3005               	movlw	5
  2067  040B  00F0               	movwf	___awmod@divisor
  2068  040C  3000               	movlw	0
  2069  040D  00F1               	movwf	___awmod@divisor+1
  2070  040E  084F               	movf	_POTENCIOMETRO$885+1,w
  2071  040F  00F3               	movwf	___awmod@dividend+1
  2072  0410  084E               	movf	_POTENCIOMETRO$885,w
  2073  0411  00F2               	movwf	___awmod@dividend
  2074  0412  120A  158A  27A7  120A  118A  	fcall	___awmod
  2075  0417  0870               	movf	?___awmod,w
  2076  0418  1283               	bcf	3,5	;RP0=0, select bank0
  2077  0419  1303               	bcf	3,6	;RP1=0, select bank0
  2078  041A  0242               	subwf	??_POTENCIOMETRO+2,w
  2079  041B  00F9               	movwf	___awdiv@dividend
  2080  041C  0871               	movf	?___awmod+1,w
  2081  041D  1C03               	skipc
  2082  041E  0A71               	incf	?___awmod+1,w
  2083  041F  0243               	subwf	??_POTENCIOMETRO+3,w
  2084  0420  00FA               	movwf	___awdiv@dividend+1
  2085  0421  120A  118A  2090  120A  118A  	fcall	___awdiv
  2086  0426  0877               	movf	?___awdiv,w
  2087  0427  1283               	bcf	3,5	;RP0=0, select bank0
  2088  0428  1303               	bcf	3,6	;RP1=0, select bank0
  2089  0429  00C4               	movwf	??_POTENCIOMETRO+4
  2090  042A  0844               	movf	??_POTENCIOMETRO+4,w
  2091  042B  00CC               	movwf	POTENCIOMETRO@decimas
  2092  042C                     l1636:	
  2093                           
  2094                           ;LIBRERIALCD.c: 158:     uint8_t centesimas = (((result %50)%5) -(((result %50)%5)%1))*2
      +                          ;
  2095  042C  0852               	movf	POTENCIOMETRO@result,w
  2096  042D  00C0               	movwf	??_POTENCIOMETRO
  2097  042E  01C1               	clrf	??_POTENCIOMETRO+1
  2098  042F  0840               	movf	??_POTENCIOMETRO,w
  2099  0430  00F2               	movwf	___awmod@dividend
  2100  0431  0841               	movf	??_POTENCIOMETRO+1,w
  2101  0432  00F3               	movwf	___awmod@dividend+1
  2102  0433  3032               	movlw	50
  2103  0434  00F0               	movwf	___awmod@divisor
  2104  0435  3000               	movlw	0
  2105  0436  00F1               	movwf	___awmod@divisor+1
  2106  0437  120A  158A  27A7  120A  118A  	fcall	___awmod
  2107  043C  0871               	movf	?___awmod+1,w
  2108  043D  1283               	bcf	3,5	;RP0=0, select bank0
  2109  043E  1303               	bcf	3,6	;RP1=0, select bank0
  2110  043F  00CF               	movwf	_POTENCIOMETRO$885+1
  2111  0440  0870               	movf	?___awmod,w
  2112  0441  00CE               	movwf	_POTENCIOMETRO$885
  2113  0442                     l1638:	
  2114                           
  2115                           ;LIBRERIALCD.c: 158:     uint8_t centesimas = (((result %50)%5) -(((result %50)%5)%1))*2
      +                          ;
  2116  0442  3005               	movlw	5
  2117  0443  00F0               	movwf	___awmod@divisor
  2118  0444  3000               	movlw	0
  2119  0445  00F1               	movwf	___awmod@divisor+1
  2120  0446  084F               	movf	_POTENCIOMETRO$885+1,w
  2121  0447  00F3               	movwf	___awmod@dividend+1
  2122  0448  084E               	movf	_POTENCIOMETRO$885,w
  2123  0449  00F2               	movwf	___awmod@dividend
  2124  044A  120A  158A  27A7  120A  118A  	fcall	___awmod
  2125  044F  0870               	movf	?___awmod,w
  2126  0450  1283               	bcf	3,5	;RP0=0, select bank0
  2127  0451  1303               	bcf	3,6	;RP1=0, select bank0
  2128  0452  00C0               	movwf	??_POTENCIOMETRO
  2129  0453  0740               	addwf	??_POTENCIOMETRO,w
  2130  0454  00C1               	movwf	??_POTENCIOMETRO+1
  2131  0455  0841               	movf	??_POTENCIOMETRO+1,w
  2132  0456  00CD               	movwf	POTENCIOMETRO@centesimas
  2133  0457                     l1640:	
  2134                           
  2135                           ;LIBRERIALCD.c: 159:     int numero[] = {unidades,decimas,centesimas};
  2136  0457  3045               	movlw	POTENCIOMETRO@numero& (0+255)
  2137  0458  0084               	movwf	4
  2138  0459  3006               	movlw	6
  2139  045A  00FF               	movwf	btemp+1
  2140  045B                     u1260:	
  2141  045B  1383               	bcf	3,7	;select IRP bank0
  2142  045C  0180               	clrf	0
  2143  045D  0A84               	incf	4,f
  2144  045E  0BFF               	decfsz	btemp+1,f
  2145  045F  2C5B               	goto	u1260
  2146  0460                     l1642:	
  2147  0460  084B               	movf	POTENCIOMETRO@unidades,w
  2148  0461  00C0               	movwf	??_POTENCIOMETRO
  2149  0462  01C1               	clrf	??_POTENCIOMETRO+1
  2150  0463  0840               	movf	??_POTENCIOMETRO,w
  2151  0464  00C5               	movwf	POTENCIOMETRO@numero
  2152  0465  0841               	movf	??_POTENCIOMETRO+1,w
  2153  0466  00C6               	movwf	POTENCIOMETRO@numero+1
  2154  0467                     l1644:	
  2155  0467  084C               	movf	POTENCIOMETRO@decimas,w
  2156  0468  00C0               	movwf	??_POTENCIOMETRO
  2157  0469  01C1               	clrf	??_POTENCIOMETRO+1
  2158  046A  0840               	movf	??_POTENCIOMETRO,w
  2159  046B  00C7               	movwf	POTENCIOMETRO@numero+2
  2160  046C  0841               	movf	??_POTENCIOMETRO+1,w
  2161  046D  00C8               	movwf	POTENCIOMETRO@numero+3
  2162  046E                     l1646:	
  2163  046E  084D               	movf	POTENCIOMETRO@centesimas,w
  2164  046F  00C0               	movwf	??_POTENCIOMETRO
  2165  0470  01C1               	clrf	??_POTENCIOMETRO+1
  2166  0471  0840               	movf	??_POTENCIOMETRO,w
  2167  0472  00C9               	movwf	POTENCIOMETRO@numero+4
  2168  0473  0841               	movf	??_POTENCIOMETRO+1,w
  2169  0474  00CA               	movwf	POTENCIOMETRO@numero+5
  2170  0475                     l1648:	
  2171                           
  2172                           ;LIBRERIALCD.c: 160:     for (int i=0; i<3;i++){
  2173  0475  01D0               	clrf	POTENCIOMETRO@i
  2174  0476  01D1               	clrf	POTENCIOMETRO@i+1
  2175  0477                     l1654:	
  2176                           
  2177                           ;LIBRERIALCD.c: 161:         valor = numero[i];
  2178  0477  1283               	bcf	3,5	;RP0=0, select bank0
  2179  0478  1303               	bcf	3,6	;RP1=0, select bank0
  2180  0479  0850               	movf	POTENCIOMETRO@i,w
  2181  047A  00C0               	movwf	??_POTENCIOMETRO
  2182  047B  0740               	addwf	??_POTENCIOMETRO,w
  2183  047C  3E45               	addlw	(low (POTENCIOMETRO@numero| 0))& (0+255)
  2184  047D  0084               	movwf	4
  2185  047E  1383               	bcf	3,7	;select IRP bank0
  2186  047F  0800               	movf	0,w
  2187  0480  00C1               	movwf	??_POTENCIOMETRO+1
  2188  0481  0841               	movf	??_POTENCIOMETRO+1,w
  2189  0482  00D3               	movwf	POTENCIOMETRO@valor
  2190  0483                     l1656:	
  2191                           
  2192                           ;LIBRERIALCD.c: 162:         if (i == 0) {
  2193  0483  0850               	movf	POTENCIOMETRO@i,w
  2194  0484  0451               	iorwf	POTENCIOMETRO@i+1,w
  2195  0485  1D03               	btfss	3,2
  2196  0486  2C88               	goto	u1271
  2197  0487  2C89               	goto	u1270
  2198  0488                     u1271:	
  2199  0488  2C8A               	goto	l1660
  2200  0489                     u1270:	
  2201  0489                     l1658:	
  2202                           
  2203                           ;LIBRERIALCD.c: 163:             coordenada = 0;
  2204  0489  01D4               	clrf	POTENCIOMETRO@coordenada
  2205  048A                     l1660:	
  2206                           
  2207                           ;LIBRERIALCD.c: 165:         if (i == 1) {
  2208  048A  0350               	decf	POTENCIOMETRO@i,w
  2209  048B  0451               	iorwf	POTENCIOMETRO@i+1,w
  2210  048C  1D03               	btfss	3,2
  2211  048D  2C8F               	goto	u1281
  2212  048E  2C90               	goto	u1280
  2213  048F                     u1281:	
  2214  048F  2C94               	goto	l1664
  2215  0490                     u1280:	
  2216  0490                     l1662:	
  2217                           
  2218                           ;LIBRERIALCD.c: 166:             coordenada = 2;
  2219  0490  3002               	movlw	2
  2220  0491  00C0               	movwf	??_POTENCIOMETRO
  2221  0492  0840               	movf	??_POTENCIOMETRO,w
  2222  0493  00D4               	movwf	POTENCIOMETRO@coordenada
  2223  0494                     l1664:	
  2224                           
  2225                           ;LIBRERIALCD.c: 168:         if (i == 2) {
  2226  0494  3002               	movlw	2
  2227  0495  0650               	xorwf	POTENCIOMETRO@i,w
  2228  0496  0451               	iorwf	POTENCIOMETRO@i+1,w
  2229  0497  1D03               	btfss	3,2
  2230  0498  2C9A               	goto	u1291
  2231  0499  2C9B               	goto	u1290
  2232  049A                     u1291:	
  2233  049A  2C9F               	goto	l1668
  2234  049B                     u1290:	
  2235  049B                     l1666:	
  2236                           
  2237                           ;LIBRERIALCD.c: 169:             coordenada = 3;
  2238  049B  3003               	movlw	3
  2239  049C  00C0               	movwf	??_POTENCIOMETRO
  2240  049D  0840               	movf	??_POTENCIOMETRO,w
  2241  049E  00D4               	movwf	POTENCIOMETRO@coordenada
  2242  049F                     l1668:	
  2243                           
  2244                           ;LIBRERIALCD.c: 171:         if (valor == 0){
  2245  049F  0853               	movf	POTENCIOMETRO@valor,w
  2246  04A0  1D03               	btfss	3,2
  2247  04A1  2CA3               	goto	u1301
  2248  04A2  2CA4               	goto	u1300
  2249  04A3                     u1301:	
  2250  04A3  2CB8               	goto	l1672
  2251  04A4                     u1300:	
  2252  04A4                     l1670:	
  2253                           
  2254                           ;LIBRERIALCD.c: 172:             lcddirection(coordenada,2,"0");
  2255  04A4  0854               	movf	POTENCIOMETRO@coordenada,w
  2256  04A5  00C0               	movwf	??_POTENCIOMETRO
  2257  04A6  01C1               	clrf	??_POTENCIOMETRO+1
  2258  04A7  0840               	movf	??_POTENCIOMETRO,w
  2259  04A8  00F8               	movwf	lcddirection@x
  2260  04A9  0841               	movf	??_POTENCIOMETRO+1,w
  2261  04AA  00F9               	movwf	lcddirection@x+1
  2262  04AB  3002               	movlw	2
  2263  04AC  00FA               	movwf	lcddirection@y
  2264  04AD  3000               	movlw	0
  2265  04AE  00FB               	movwf	lcddirection@y+1
  2266  04AF  3050               	movlw	(low (((STR_7+1)-__stringbase)| (0+32768)))& (0+255)
  2267  04B0  00C2               	movwf	??_POTENCIOMETRO+2
  2268  04B1  0842               	movf	??_POTENCIOMETRO+2,w
  2269  04B2  00FC               	movwf	lcddirection@valor
  2270  04B3  120A  158A  2723  120A  118A  	fcall	_lcddirection
  2271  04B8                     l1672:	
  2272                           
  2273                           ;LIBRERIALCD.c: 174:         if (valor == 1){
  2274  04B8  1283               	bcf	3,5	;RP0=0, select bank0
  2275  04B9  1303               	bcf	3,6	;RP1=0, select bank0
  2276  04BA  0353               	decf	POTENCIOMETRO@valor,w
  2277  04BB  1D03               	btfss	3,2
  2278  04BC  2CBE               	goto	u1311
  2279  04BD  2CBF               	goto	u1310
  2280  04BE                     u1311:	
  2281  04BE  2CD3               	goto	l1676
  2282  04BF                     u1310:	
  2283  04BF                     l1674:	
  2284                           
  2285                           ;LIBRERIALCD.c: 175:             lcddirection(coordenada,2,"1");
  2286  04BF  0854               	movf	POTENCIOMETRO@coordenada,w
  2287  04C0  00C0               	movwf	??_POTENCIOMETRO
  2288  04C1  01C1               	clrf	??_POTENCIOMETRO+1
  2289  04C2  0840               	movf	??_POTENCIOMETRO,w
  2290  04C3  00F8               	movwf	lcddirection@x
  2291  04C4  0841               	movf	??_POTENCIOMETRO+1,w
  2292  04C5  00F9               	movwf	lcddirection@x+1
  2293  04C6  3002               	movlw	2
  2294  04C7  00FA               	movwf	lcddirection@y
  2295  04C8  3000               	movlw	0
  2296  04C9  00FB               	movwf	lcddirection@y+1
  2297  04CA  3056               	movlw	(low (((STR_8+1)-__stringbase)| (0+32768)))& (0+255)
  2298  04CB  00C2               	movwf	??_POTENCIOMETRO+2
  2299  04CC  0842               	movf	??_POTENCIOMETRO+2,w
  2300  04CD  00FC               	movwf	lcddirection@valor
  2301  04CE  120A  158A  2723  120A  118A  	fcall	_lcddirection
  2302  04D3                     l1676:	
  2303                           
  2304                           ;LIBRERIALCD.c: 177:         if (valor == 2){
  2305  04D3  3002               	movlw	2
  2306  04D4  1283               	bcf	3,5	;RP0=0, select bank0
  2307  04D5  1303               	bcf	3,6	;RP1=0, select bank0
  2308  04D6  0653               	xorwf	POTENCIOMETRO@valor,w
  2309  04D7  1D03               	btfss	3,2
  2310  04D8  2CDA               	goto	u1321
  2311  04D9  2CDB               	goto	u1320
  2312  04DA                     u1321:	
  2313  04DA  2CEF               	goto	l1680
  2314  04DB                     u1320:	
  2315  04DB                     l1678:	
  2316                           
  2317                           ;LIBRERIALCD.c: 178:             lcddirection(coordenada,2,"2");
  2318  04DB  0854               	movf	POTENCIOMETRO@coordenada,w
  2319  04DC  00C0               	movwf	??_POTENCIOMETRO
  2320  04DD  01C1               	clrf	??_POTENCIOMETRO+1
  2321  04DE  0840               	movf	??_POTENCIOMETRO,w
  2322  04DF  00F8               	movwf	lcddirection@x
  2323  04E0  0841               	movf	??_POTENCIOMETRO+1,w
  2324  04E1  00F9               	movwf	lcddirection@x+1
  2325  04E2  3002               	movlw	2
  2326  04E3  00FA               	movwf	lcddirection@y
  2327  04E4  3000               	movlw	0
  2328  04E5  00FB               	movwf	lcddirection@y+1
  2329  04E6  305C               	movlw	(low (((STR_9+1)-__stringbase)| (0+32768)))& (0+255)
  2330  04E7  00C2               	movwf	??_POTENCIOMETRO+2
  2331  04E8  0842               	movf	??_POTENCIOMETRO+2,w
  2332  04E9  00FC               	movwf	lcddirection@valor
  2333  04EA  120A  158A  2723  120A  118A  	fcall	_lcddirection
  2334  04EF                     l1680:	
  2335                           
  2336                           ;LIBRERIALCD.c: 180:         if (valor == 3){
  2337  04EF  3003               	movlw	3
  2338  04F0  1283               	bcf	3,5	;RP0=0, select bank0
  2339  04F1  1303               	bcf	3,6	;RP1=0, select bank0
  2340  04F2  0653               	xorwf	POTENCIOMETRO@valor,w
  2341  04F3  1D03               	btfss	3,2
  2342  04F4  2CF6               	goto	u1331
  2343  04F5  2CF7               	goto	u1330
  2344  04F6                     u1331:	
  2345  04F6  2D0B               	goto	l1684
  2346  04F7                     u1330:	
  2347  04F7                     l1682:	
  2348                           
  2349                           ;LIBRERIALCD.c: 181:             lcddirection(coordenada,2,"3");
  2350  04F7  0854               	movf	POTENCIOMETRO@coordenada,w
  2351  04F8  00C0               	movwf	??_POTENCIOMETRO
  2352  04F9  01C1               	clrf	??_POTENCIOMETRO+1
  2353  04FA  0840               	movf	??_POTENCIOMETRO,w
  2354  04FB  00F8               	movwf	lcddirection@x
  2355  04FC  0841               	movf	??_POTENCIOMETRO+1,w
  2356  04FD  00F9               	movwf	lcddirection@x+1
  2357  04FE  3002               	movlw	2
  2358  04FF  00FA               	movwf	lcddirection@y
  2359  0500  3000               	movlw	0
  2360  0501  00FB               	movwf	lcddirection@y+1
  2361  0502  3062               	movlw	(low (((STR_10+1)-__stringbase)| (0+32768)))& (0+255)
  2362  0503  00C2               	movwf	??_POTENCIOMETRO+2
  2363  0504  0842               	movf	??_POTENCIOMETRO+2,w
  2364  0505  00FC               	movwf	lcddirection@valor
  2365  0506  120A  158A  2723  120A  118A  	fcall	_lcddirection
  2366  050B                     l1684:	
  2367                           
  2368                           ;LIBRERIALCD.c: 183:         if (valor == 4){
  2369  050B  3004               	movlw	4
  2370  050C  1283               	bcf	3,5	;RP0=0, select bank0
  2371  050D  1303               	bcf	3,6	;RP1=0, select bank0
  2372  050E  0653               	xorwf	POTENCIOMETRO@valor,w
  2373  050F  1D03               	btfss	3,2
  2374  0510  2D12               	goto	u1341
  2375  0511  2D13               	goto	u1340
  2376  0512                     u1341:	
  2377  0512  2D27               	goto	l1688
  2378  0513                     u1340:	
  2379  0513                     l1686:	
  2380                           
  2381                           ;LIBRERIALCD.c: 184:             lcddirection(coordenada,2,"4");
  2382  0513  0854               	movf	POTENCIOMETRO@coordenada,w
  2383  0514  00C0               	movwf	??_POTENCIOMETRO
  2384  0515  01C1               	clrf	??_POTENCIOMETRO+1
  2385  0516  0840               	movf	??_POTENCIOMETRO,w
  2386  0517  00F8               	movwf	lcddirection@x
  2387  0518  0841               	movf	??_POTENCIOMETRO+1,w
  2388  0519  00F9               	movwf	lcddirection@x+1
  2389  051A  3002               	movlw	2
  2390  051B  00FA               	movwf	lcddirection@y
  2391  051C  3000               	movlw	0
  2392  051D  00FB               	movwf	lcddirection@y+1
  2393  051E  3068               	movlw	(low (((STR_11+1)-__stringbase)| (0+32768)))& (0+255)
  2394  051F  00C2               	movwf	??_POTENCIOMETRO+2
  2395  0520  0842               	movf	??_POTENCIOMETRO+2,w
  2396  0521  00FC               	movwf	lcddirection@valor
  2397  0522  120A  158A  2723  120A  118A  	fcall	_lcddirection
  2398  0527                     l1688:	
  2399                           
  2400                           ;LIBRERIALCD.c: 186:         if (valor == 5){
  2401  0527  3005               	movlw	5
  2402  0528  1283               	bcf	3,5	;RP0=0, select bank0
  2403  0529  1303               	bcf	3,6	;RP1=0, select bank0
  2404  052A  0653               	xorwf	POTENCIOMETRO@valor,w
  2405  052B  1D03               	btfss	3,2
  2406  052C  2D2E               	goto	u1351
  2407  052D  2D2F               	goto	u1350
  2408  052E                     u1351:	
  2409  052E  2D43               	goto	l1692
  2410  052F                     u1350:	
  2411  052F                     l1690:	
  2412                           
  2413                           ;LIBRERIALCD.c: 187:             lcddirection(coordenada,2,"5");
  2414  052F  0854               	movf	POTENCIOMETRO@coordenada,w
  2415  0530  00C0               	movwf	??_POTENCIOMETRO
  2416  0531  01C1               	clrf	??_POTENCIOMETRO+1
  2417  0532  0840               	movf	??_POTENCIOMETRO,w
  2418  0533  00F8               	movwf	lcddirection@x
  2419  0534  0841               	movf	??_POTENCIOMETRO+1,w
  2420  0535  00F9               	movwf	lcddirection@x+1
  2421  0536  3002               	movlw	2
  2422  0537  00FA               	movwf	lcddirection@y
  2423  0538  3000               	movlw	0
  2424  0539  00FB               	movwf	lcddirection@y+1
  2425  053A  306E               	movlw	(low (((STR_12+1)-__stringbase)| (0+32768)))& (0+255)
  2426  053B  00C2               	movwf	??_POTENCIOMETRO+2
  2427  053C  0842               	movf	??_POTENCIOMETRO+2,w
  2428  053D  00FC               	movwf	lcddirection@valor
  2429  053E  120A  158A  2723  120A  118A  	fcall	_lcddirection
  2430  0543                     l1692:	
  2431                           
  2432                           ;LIBRERIALCD.c: 189:         if (valor == 6){
  2433  0543  3006               	movlw	6
  2434  0544  1283               	bcf	3,5	;RP0=0, select bank0
  2435  0545  1303               	bcf	3,6	;RP1=0, select bank0
  2436  0546  0653               	xorwf	POTENCIOMETRO@valor,w
  2437  0547  1D03               	btfss	3,2
  2438  0548  2D4A               	goto	u1361
  2439  0549  2D4B               	goto	u1360
  2440  054A                     u1361:	
  2441  054A  2D5F               	goto	l1696
  2442  054B                     u1360:	
  2443  054B                     l1694:	
  2444                           
  2445                           ;LIBRERIALCD.c: 190:             lcddirection(coordenada,2,"6");
  2446  054B  0854               	movf	POTENCIOMETRO@coordenada,w
  2447  054C  00C0               	movwf	??_POTENCIOMETRO
  2448  054D  01C1               	clrf	??_POTENCIOMETRO+1
  2449  054E  0840               	movf	??_POTENCIOMETRO,w
  2450  054F  00F8               	movwf	lcddirection@x
  2451  0550  0841               	movf	??_POTENCIOMETRO+1,w
  2452  0551  00F9               	movwf	lcddirection@x+1
  2453  0552  3002               	movlw	2
  2454  0553  00FA               	movwf	lcddirection@y
  2455  0554  3000               	movlw	0
  2456  0555  00FB               	movwf	lcddirection@y+1
  2457  0556  3074               	movlw	(low (((STR_13+1)-__stringbase)| (0+32768)))& (0+255)
  2458  0557  00C2               	movwf	??_POTENCIOMETRO+2
  2459  0558  0842               	movf	??_POTENCIOMETRO+2,w
  2460  0559  00FC               	movwf	lcddirection@valor
  2461  055A  120A  158A  2723  120A  118A  	fcall	_lcddirection
  2462  055F                     l1696:	
  2463                           
  2464                           ;LIBRERIALCD.c: 192:         if (valor == 7){
  2465  055F  3007               	movlw	7
  2466  0560  1283               	bcf	3,5	;RP0=0, select bank0
  2467  0561  1303               	bcf	3,6	;RP1=0, select bank0
  2468  0562  0653               	xorwf	POTENCIOMETRO@valor,w
  2469  0563  1D03               	btfss	3,2
  2470  0564  2D66               	goto	u1371
  2471  0565  2D67               	goto	u1370
  2472  0566                     u1371:	
  2473  0566  2D7B               	goto	l1700
  2474  0567                     u1370:	
  2475  0567                     l1698:	
  2476                           
  2477                           ;LIBRERIALCD.c: 193:             lcddirection(coordenada,2,"7");
  2478  0567  0854               	movf	POTENCIOMETRO@coordenada,w
  2479  0568  00C0               	movwf	??_POTENCIOMETRO
  2480  0569  01C1               	clrf	??_POTENCIOMETRO+1
  2481  056A  0840               	movf	??_POTENCIOMETRO,w
  2482  056B  00F8               	movwf	lcddirection@x
  2483  056C  0841               	movf	??_POTENCIOMETRO+1,w
  2484  056D  00F9               	movwf	lcddirection@x+1
  2485  056E  3002               	movlw	2
  2486  056F  00FA               	movwf	lcddirection@y
  2487  0570  3000               	movlw	0
  2488  0571  00FB               	movwf	lcddirection@y+1
  2489  0572  307A               	movlw	(low (((STR_14+1)-__stringbase)| (0+32768)))& (0+255)
  2490  0573  00C2               	movwf	??_POTENCIOMETRO+2
  2491  0574  0842               	movf	??_POTENCIOMETRO+2,w
  2492  0575  00FC               	movwf	lcddirection@valor
  2493  0576  120A  158A  2723  120A  118A  	fcall	_lcddirection
  2494  057B                     l1700:	
  2495                           
  2496                           ;LIBRERIALCD.c: 195:         if (valor == 8){
  2497  057B  3008               	movlw	8
  2498  057C  1283               	bcf	3,5	;RP0=0, select bank0
  2499  057D  1303               	bcf	3,6	;RP1=0, select bank0
  2500  057E  0653               	xorwf	POTENCIOMETRO@valor,w
  2501  057F  1D03               	btfss	3,2
  2502  0580  2D82               	goto	u1381
  2503  0581  2D83               	goto	u1380
  2504  0582                     u1381:	
  2505  0582  2D97               	goto	l1704
  2506  0583                     u1380:	
  2507  0583                     l1702:	
  2508                           
  2509                           ;LIBRERIALCD.c: 196:             lcddirection(coordenada,2,"8");
  2510  0583  0854               	movf	POTENCIOMETRO@coordenada,w
  2511  0584  00C0               	movwf	??_POTENCIOMETRO
  2512  0585  01C1               	clrf	??_POTENCIOMETRO+1
  2513  0586  0840               	movf	??_POTENCIOMETRO,w
  2514  0587  00F8               	movwf	lcddirection@x
  2515  0588  0841               	movf	??_POTENCIOMETRO+1,w
  2516  0589  00F9               	movwf	lcddirection@x+1
  2517  058A  3002               	movlw	2
  2518  058B  00FA               	movwf	lcddirection@y
  2519  058C  3000               	movlw	0
  2520  058D  00FB               	movwf	lcddirection@y+1
  2521  058E  307D               	movlw	(low (((STR_15+1)-__stringbase)| (0+32768)))& (0+255)
  2522  058F  00C2               	movwf	??_POTENCIOMETRO+2
  2523  0590  0842               	movf	??_POTENCIOMETRO+2,w
  2524  0591  00FC               	movwf	lcddirection@valor
  2525  0592  120A  158A  2723  120A  118A  	fcall	_lcddirection
  2526  0597                     l1704:	
  2527                           
  2528                           ;LIBRERIALCD.c: 198:         if (valor == 9){
  2529  0597  3009               	movlw	9
  2530  0598  1283               	bcf	3,5	;RP0=0, select bank0
  2531  0599  1303               	bcf	3,6	;RP1=0, select bank0
  2532  059A  0653               	xorwf	POTENCIOMETRO@valor,w
  2533  059B  1D03               	btfss	3,2
  2534  059C  2D9E               	goto	u1391
  2535  059D  2D9F               	goto	u1390
  2536  059E                     u1391:	
  2537  059E  2DB3               	goto	l1708
  2538  059F                     u1390:	
  2539  059F                     l1706:	
  2540                           
  2541                           ;LIBRERIALCD.c: 199:             lcddirection(coordenada,2,"9");
  2542  059F  0854               	movf	POTENCIOMETRO@coordenada,w
  2543  05A0  00C0               	movwf	??_POTENCIOMETRO
  2544  05A1  01C1               	clrf	??_POTENCIOMETRO+1
  2545  05A2  0840               	movf	??_POTENCIOMETRO,w
  2546  05A3  00F8               	movwf	lcddirection@x
  2547  05A4  0841               	movf	??_POTENCIOMETRO+1,w
  2548  05A5  00F9               	movwf	lcddirection@x+1
  2549  05A6  3002               	movlw	2
  2550  05A7  00FA               	movwf	lcddirection@y
  2551  05A8  3000               	movlw	0
  2552  05A9  00FB               	movwf	lcddirection@y+1
  2553  05AA  3080               	movlw	(low (((STR_16+1)-__stringbase)| (0+32768)))& (0+255)
  2554  05AB  00C2               	movwf	??_POTENCIOMETRO+2
  2555  05AC  0842               	movf	??_POTENCIOMETRO+2,w
  2556  05AD  00FC               	movwf	lcddirection@valor
  2557  05AE  120A  158A  2723  120A  118A  	fcall	_lcddirection
  2558  05B3                     l1708:	
  2559                           
  2560                           ;LIBRERIALCD.c: 201:     }
  2561  05B3  3001               	movlw	1
  2562  05B4  1283               	bcf	3,5	;RP0=0, select bank0
  2563  05B5  1303               	bcf	3,6	;RP1=0, select bank0
  2564  05B6  07D0               	addwf	POTENCIOMETRO@i,f
  2565  05B7  1803               	skipnc
  2566  05B8  0AD1               	incf	POTENCIOMETRO@i+1,f
  2567  05B9  3000               	movlw	0
  2568  05BA  07D1               	addwf	POTENCIOMETRO@i+1,f
  2569  05BB                     l1710:	
  2570  05BB  0851               	movf	POTENCIOMETRO@i+1,w
  2571  05BC  3A80               	xorlw	128
  2572  05BD  00FF               	movwf	btemp+1
  2573  05BE  3080               	movlw	128
  2574  05BF  027F               	subwf	btemp+1,w
  2575  05C0  1D03               	skipz
  2576  05C1  2DC4               	goto	u1405
  2577  05C2  3003               	movlw	3
  2578  05C3  0250               	subwf	POTENCIOMETRO@i,w
  2579  05C4                     u1405:	
  2580  05C4  1C03               	skipc
  2581  05C5  2DC7               	goto	u1401
  2582  05C6  2DC8               	goto	u1400
  2583  05C7                     u1401:	
  2584  05C7  2C77               	goto	l1654
  2585  05C8                     u1400:	
  2586  05C8                     l196:	
  2587  05C8  0008               	return
  2588  05C9                     __end_of_POTENCIOMETRO:	
  2589                           
  2590                           	psect	text7
  2591  0F4E                     __ptext7:	
  2592 ;; *************** function _LCDvalue *****************
  2593 ;; Defined at:
  2594 ;;		line 51 in file "LIBRERIALCD.c"
  2595 ;; Parameters:    Size  Location     Type
  2596 ;;		None
  2597 ;; Auto vars:     Size  Location     Type
  2598 ;;		None
  2599 ;; Return value:  Size  Location     Type
  2600 ;;                  1    wreg      void 
  2601 ;; Registers used:
  2602 ;;		wreg, status,2, status,0, btemp+1, pclath, cstack
  2603 ;; Tracked objects:
  2604 ;;		On entry : 0/0
  2605 ;;		On exit  : 0/0
  2606 ;;		Unchanged: 0/0
  2607 ;; Data sizes:     COMMON   BANK0   BANK1   BANK3   BANK2
  2608 ;;      Params:         0       0       0       0       0
  2609 ;;      Locals:         0       0       0       0       0
  2610 ;;      Temps:          0       0       0       0       0
  2611 ;;      Totals:         0       0       0       0       0
  2612 ;;Total ram usage:        0 bytes
  2613 ;; Hardware stack levels used:    1
  2614 ;; Hardware stack levels required when called:    3
  2615 ;; This function calls:
  2616 ;;		_Control
  2617 ;;		_delay_ms
  2618 ;; This function is called by:
  2619 ;;		_main
  2620 ;; This function uses a non-reentrant model
  2621 ;;
  2622                           
  2623                           
  2624                           ;psect for function _LCDvalue
  2625  0F4E                     _LCDvalue:	
  2626  0F4E                     l1602:	
  2627                           ;incstack = 0
  2628                           ; Regs used in _LCDvalue: [wreg+status,2+status,0+btemp+1+pclath+cstack]
  2629                           
  2630                           
  2631                           ;LIBRERIALCD.c: 52:     TRISDbits.TRISD6=0;
  2632  0F4E  1683               	bsf	3,5	;RP0=1, select bank1
  2633  0F4F  1303               	bcf	3,6	;RP1=0, select bank1
  2634  0F50  1308               	bcf	8,6	;volatile
  2635                           
  2636                           ;LIBRERIALCD.c: 53:     TRISDbits.TRISD7=0;
  2637  0F51  1388               	bcf	8,7	;volatile
  2638  0F52                     l1604:	
  2639                           
  2640                           ;LIBRERIALCD.c: 54:     TRISB=0;
  2641  0F52  0186               	clrf	6	;volatile
  2642  0F53                     l1606:	
  2643                           
  2644                           ;LIBRERIALCD.c: 55:     PORTDbits.RD6=0;
  2645  0F53  1283               	bcf	3,5	;RP0=0, select bank0
  2646  0F54  1303               	bcf	3,6	;RP1=0, select bank0
  2647  0F55  1308               	bcf	8,6	;volatile
  2648  0F56                     l1608:	
  2649                           
  2650                           ;LIBRERIALCD.c: 56:     PORTDbits.RD7=0;
  2651  0F56  1388               	bcf	8,7	;volatile
  2652                           
  2653                           ;LIBRERIALCD.c: 57:     PORTB=0;
  2654  0F57  0186               	clrf	6	;volatile
  2655  0F58                     l1610:	
  2656                           
  2657                           ;LIBRERIALCD.c: 58:     delay_ms(50);
  2658  0F58  3032               	movlw	50
  2659  0F59  00F0               	movwf	delay_ms@dms
  2660  0F5A  3000               	movlw	0
  2661  0F5B  00F1               	movwf	delay_ms@dms+1
  2662  0F5C  120A  158A  277A  120A  158A  	fcall	_delay_ms
  2663  0F61                     l1612:	
  2664                           
  2665                           ;LIBRERIALCD.c: 59:     Control(0x02);
  2666  0F61  3002               	movlw	2
  2667  0F62  120A  158A  26A9  120A  158A  	fcall	_Control
  2668  0F67                     l1614:	
  2669                           
  2670                           ;LIBRERIALCD.c: 60:     Control(0x38);
  2671  0F67  3038               	movlw	56
  2672  0F68  120A  158A  26A9  120A  158A  	fcall	_Control
  2673  0F6D                     l1616:	
  2674                           
  2675                           ;LIBRERIALCD.c: 61:     Control(0x0C);
  2676  0F6D  300C               	movlw	12
  2677  0F6E  120A  158A  26A9  120A  158A  	fcall	_Control
  2678  0F73                     l1618:	
  2679                           
  2680                           ;LIBRERIALCD.c: 62:     Control(0x06);
  2681  0F73  3006               	movlw	6
  2682  0F74  120A  158A  26A9  120A  158A  	fcall	_Control
  2683  0F79                     l139:	
  2684  0F79  0008               	return
  2685  0F7A                     __end_of_LCDvalue:	
  2686                           
  2687                           	psect	text8
  2688  05C9                     __ptext8:	
  2689 ;; *************** function _FOTORESIS *****************
  2690 ;; Defined at:
  2691 ;;		line 204 in file "LIBRERIALCD.c"
  2692 ;; Parameters:    Size  Location     Type
  2693 ;;  result          1    wreg     unsigned char 
  2694 ;; Auto vars:     Size  Location     Type
  2695 ;;  result          1   22[BANK0 ] unsigned char 
  2696 ;;  i               2   20[BANK0 ] int 
  2697 ;;  numero          6    9[BANK0 ] int [3]
  2698 ;;  coordenada      1   24[BANK0 ] unsigned char 
  2699 ;;  valor           1   23[BANK0 ] unsigned char 
  2700 ;;  centesimas      1   17[BANK0 ] unsigned char 
  2701 ;;  decimas         1   16[BANK0 ] unsigned char 
  2702 ;;  unidades        1   15[BANK0 ] unsigned char 
  2703 ;; Return value:  Size  Location     Type
  2704 ;;                  1    wreg      void 
  2705 ;; Registers used:
  2706 ;;		wreg, fsr0l, fsr0h, status,2, status,0, btemp+1, pclath, cstack
  2707 ;; Tracked objects:
  2708 ;;		On entry : 0/0
  2709 ;;		On exit  : 0/0
  2710 ;;		Unchanged: 0/0
  2711 ;; Data sizes:     COMMON   BANK0   BANK1   BANK3   BANK2
  2712 ;;      Params:         0       0       0       0       0
  2713 ;;      Locals:         0      16       0       0       0
  2714 ;;      Temps:          0       5       0       0       0
  2715 ;;      Totals:         0      21       0       0       0
  2716 ;;Total ram usage:       21 bytes
  2717 ;; Hardware stack levels used:    1
  2718 ;; Hardware stack levels required when called:    5
  2719 ;; This function calls:
  2720 ;;		___awdiv
  2721 ;;		___awmod
  2722 ;;		_lcddirection
  2723 ;; This function is called by:
  2724 ;;		_main
  2725 ;; This function uses a non-reentrant model
  2726 ;;
  2727                           
  2728                           
  2729                           ;psect for function _FOTORESIS
  2730  05C9                     _FOTORESIS:	
  2731                           
  2732                           ;incstack = 0
  2733                           ; Regs used in _FOTORESIS: [wreg-fsr0h+status,2+status,0+btemp+1+pclath+cstack]
  2734                           ;FOTORESIS@result stored from wreg
  2735  05C9  1283               	bcf	3,5	;RP0=0, select bank0
  2736  05CA  1303               	bcf	3,6	;RP1=0, select bank0
  2737  05CB  00D2               	movwf	FOTORESIS@result
  2738  05CC                     l1712:	
  2739                           
  2740                           ;LIBRERIALCD.c: 205:     if (result>=250){result = 250;}
  2741  05CC  30FA               	movlw	250
  2742  05CD  0252               	subwf	FOTORESIS@result,w
  2743  05CE  1C03               	skipc
  2744  05CF  2DD1               	goto	u1411
  2745  05D0  2DD2               	goto	u1410
  2746  05D1                     u1411:	
  2747  05D1  2DD6               	goto	l1716
  2748  05D2                     u1410:	
  2749  05D2                     l1714:	
  2750  05D2  30FA               	movlw	250
  2751  05D3  00C0               	movwf	??_FOTORESIS
  2752  05D4  0840               	movf	??_FOTORESIS,w
  2753  05D5  00D2               	movwf	FOTORESIS@result
  2754  05D6                     l1716:	
  2755  05D6                     l1718:	
  2756                           
  2757                           ;LIBRERIALCD.c: 207:     uint8_t coordenada = 0;
  2758  05D6  01D4               	clrf	FOTORESIS@coordenada
  2759  05D7                     l1720:	
  2760                           
  2761                           ;LIBRERIALCD.c: 208:     uint8_t unidades = (result - (result % 50))/50;
  2762  05D7  3032               	movlw	50
  2763  05D8  00F7               	movwf	___awdiv@divisor
  2764  05D9  3000               	movlw	0
  2765  05DA  00F8               	movwf	___awdiv@divisor+1
  2766  05DB  3032               	movlw	50
  2767  05DC  00F0               	movwf	___awmod@divisor
  2768  05DD  3000               	movlw	0
  2769  05DE  00F1               	movwf	___awmod@divisor+1
  2770  05DF  0852               	movf	FOTORESIS@result,w
  2771  05E0  00C0               	movwf	??_FOTORESIS
  2772  05E1  01C1               	clrf	??_FOTORESIS+1
  2773  05E2  0840               	movf	??_FOTORESIS,w
  2774  05E3  00F2               	movwf	___awmod@dividend
  2775  05E4  0841               	movf	??_FOTORESIS+1,w
  2776  05E5  00F3               	movwf	___awmod@dividend+1
  2777  05E6  120A  158A  27A7  120A  118A  	fcall	___awmod
  2778  05EB  1283               	bcf	3,5	;RP0=0, select bank0
  2779  05EC  1303               	bcf	3,6	;RP1=0, select bank0
  2780  05ED  0852               	movf	FOTORESIS@result,w
  2781  05EE  00C2               	movwf	??_FOTORESIS+2
  2782  05EF  0870               	movf	?___awmod,w
  2783  05F0  0242               	subwf	??_FOTORESIS+2,w
  2784  05F1  00F9               	movwf	___awdiv@dividend
  2785  05F2  0971               	comf	?___awmod+1,w
  2786  05F3  1803               	skipnc
  2787  05F4  3E01               	addlw	1
  2788  05F5  00FA               	movwf	___awdiv@dividend+1
  2789  05F6  120A  118A  2090  120A  118A  	fcall	___awdiv
  2790  05FB  0877               	movf	?___awdiv,w
  2791  05FC  1283               	bcf	3,5	;RP0=0, select bank0
  2792  05FD  1303               	bcf	3,6	;RP1=0, select bank0
  2793  05FE  00C3               	movwf	??_FOTORESIS+3
  2794  05FF  0843               	movf	??_FOTORESIS+3,w
  2795  0600  00CB               	movwf	FOTORESIS@unidades
  2796  0601                     l1722:	
  2797                           
  2798                           ;LIBRERIALCD.c: 209:     uint8_t decimas = ((result %50) -((result %50)%5))/5;
  2799  0601  0852               	movf	FOTORESIS@result,w
  2800  0602  00C0               	movwf	??_FOTORESIS
  2801  0603  01C1               	clrf	??_FOTORESIS+1
  2802  0604  0840               	movf	??_FOTORESIS,w
  2803  0605  00F2               	movwf	___awmod@dividend
  2804  0606  0841               	movf	??_FOTORESIS+1,w
  2805  0607  00F3               	movwf	___awmod@dividend+1
  2806  0608  3032               	movlw	50
  2807  0609  00F0               	movwf	___awmod@divisor
  2808  060A  3000               	movlw	0
  2809  060B  00F1               	movwf	___awmod@divisor+1
  2810  060C  120A  158A  27A7  120A  118A  	fcall	___awmod
  2811  0611  0871               	movf	?___awmod+1,w
  2812  0612  1283               	bcf	3,5	;RP0=0, select bank0
  2813  0613  1303               	bcf	3,6	;RP1=0, select bank0
  2814  0614  00CF               	movwf	_FOTORESIS$886+1
  2815  0615  0870               	movf	?___awmod,w
  2816  0616  00CE               	movwf	_FOTORESIS$886
  2817  0617                     l1724:	
  2818                           
  2819                           ;LIBRERIALCD.c: 209:     uint8_t decimas = ((result %50) -((result %50)%5))/5;
  2820  0617  3005               	movlw	5
  2821  0618  00F7               	movwf	___awdiv@divisor
  2822  0619  3000               	movlw	0
  2823  061A  00F8               	movwf	___awdiv@divisor+1
  2824  061B  3032               	movlw	50
  2825  061C  00F0               	movwf	___awmod@divisor
  2826  061D  3000               	movlw	0
  2827  061E  00F1               	movwf	___awmod@divisor+1
  2828  061F  0852               	movf	FOTORESIS@result,w
  2829  0620  00C0               	movwf	??_FOTORESIS
  2830  0621  01C1               	clrf	??_FOTORESIS+1
  2831  0622  0840               	movf	??_FOTORESIS,w
  2832  0623  00F2               	movwf	___awmod@dividend
  2833  0624  0841               	movf	??_FOTORESIS+1,w
  2834  0625  00F3               	movwf	___awmod@dividend+1
  2835  0626  120A  158A  27A7  120A  118A  	fcall	___awmod
  2836  062B  0870               	movf	?___awmod,w
  2837  062C  1283               	bcf	3,5	;RP0=0, select bank0
  2838  062D  1303               	bcf	3,6	;RP1=0, select bank0
  2839  062E  00C2               	movwf	??_FOTORESIS+2
  2840  062F  0871               	movf	?___awmod+1,w
  2841  0630  00C3               	movwf	??_FOTORESIS+3
  2842  0631  3005               	movlw	5
  2843  0632  00F0               	movwf	___awmod@divisor
  2844  0633  3000               	movlw	0
  2845  0634  00F1               	movwf	___awmod@divisor+1
  2846  0635  084F               	movf	_FOTORESIS$886+1,w
  2847  0636  00F3               	movwf	___awmod@dividend+1
  2848  0637  084E               	movf	_FOTORESIS$886,w
  2849  0638  00F2               	movwf	___awmod@dividend
  2850  0639  120A  158A  27A7  120A  118A  	fcall	___awmod
  2851  063E  0870               	movf	?___awmod,w
  2852  063F  1283               	bcf	3,5	;RP0=0, select bank0
  2853  0640  1303               	bcf	3,6	;RP1=0, select bank0
  2854  0641  0242               	subwf	??_FOTORESIS+2,w
  2855  0642  00F9               	movwf	___awdiv@dividend
  2856  0643  0871               	movf	?___awmod+1,w
  2857  0644  1C03               	skipc
  2858  0645  0A71               	incf	?___awmod+1,w
  2859  0646  0243               	subwf	??_FOTORESIS+3,w
  2860  0647  00FA               	movwf	___awdiv@dividend+1
  2861  0648  120A  118A  2090  120A  118A  	fcall	___awdiv
  2862  064D  0877               	movf	?___awdiv,w
  2863  064E  1283               	bcf	3,5	;RP0=0, select bank0
  2864  064F  1303               	bcf	3,6	;RP1=0, select bank0
  2865  0650  00C4               	movwf	??_FOTORESIS+4
  2866  0651  0844               	movf	??_FOTORESIS+4,w
  2867  0652  00CC               	movwf	FOTORESIS@decimas
  2868  0653                     l1726:	
  2869                           
  2870                           ;LIBRERIALCD.c: 210:     uint8_t centesimas = (((result %50)%5) -(((result %50)%5)%1))*2
      +                          ;
  2871  0653  0852               	movf	FOTORESIS@result,w
  2872  0654  00C0               	movwf	??_FOTORESIS
  2873  0655  01C1               	clrf	??_FOTORESIS+1
  2874  0656  0840               	movf	??_FOTORESIS,w
  2875  0657  00F2               	movwf	___awmod@dividend
  2876  0658  0841               	movf	??_FOTORESIS+1,w
  2877  0659  00F3               	movwf	___awmod@dividend+1
  2878  065A  3032               	movlw	50
  2879  065B  00F0               	movwf	___awmod@divisor
  2880  065C  3000               	movlw	0
  2881  065D  00F1               	movwf	___awmod@divisor+1
  2882  065E  120A  158A  27A7  120A  118A  	fcall	___awmod
  2883  0663  0871               	movf	?___awmod+1,w
  2884  0664  1283               	bcf	3,5	;RP0=0, select bank0
  2885  0665  1303               	bcf	3,6	;RP1=0, select bank0
  2886  0666  00CF               	movwf	_FOTORESIS$886+1
  2887  0667  0870               	movf	?___awmod,w
  2888  0668  00CE               	movwf	_FOTORESIS$886
  2889  0669                     l1728:	
  2890                           
  2891                           ;LIBRERIALCD.c: 210:     uint8_t centesimas = (((result %50)%5) -(((result %50)%5)%1))*2
      +                          ;
  2892  0669  3005               	movlw	5
  2893  066A  00F0               	movwf	___awmod@divisor
  2894  066B  3000               	movlw	0
  2895  066C  00F1               	movwf	___awmod@divisor+1
  2896  066D  084F               	movf	_FOTORESIS$886+1,w
  2897  066E  00F3               	movwf	___awmod@dividend+1
  2898  066F  084E               	movf	_FOTORESIS$886,w
  2899  0670  00F2               	movwf	___awmod@dividend
  2900  0671  120A  158A  27A7  120A  118A  	fcall	___awmod
  2901  0676  0870               	movf	?___awmod,w
  2902  0677  1283               	bcf	3,5	;RP0=0, select bank0
  2903  0678  1303               	bcf	3,6	;RP1=0, select bank0
  2904  0679  00C0               	movwf	??_FOTORESIS
  2905  067A  0740               	addwf	??_FOTORESIS,w
  2906  067B  00C1               	movwf	??_FOTORESIS+1
  2907  067C  0841               	movf	??_FOTORESIS+1,w
  2908  067D  00CD               	movwf	FOTORESIS@centesimas
  2909  067E                     l1730:	
  2910                           
  2911                           ;LIBRERIALCD.c: 211:     int numero[] = {unidades,decimas,centesimas};
  2912  067E  3045               	movlw	FOTORESIS@numero& (0+255)
  2913  067F  0084               	movwf	4
  2914  0680  3006               	movlw	6
  2915  0681  00FF               	movwf	btemp+1
  2916  0682                     u1420:	
  2917  0682  1383               	bcf	3,7	;select IRP bank0
  2918  0683  0180               	clrf	0
  2919  0684  0A84               	incf	4,f
  2920  0685  0BFF               	decfsz	btemp+1,f
  2921  0686  2E82               	goto	u1420
  2922  0687                     l1732:	
  2923  0687  084B               	movf	FOTORESIS@unidades,w
  2924  0688  00C0               	movwf	??_FOTORESIS
  2925  0689  01C1               	clrf	??_FOTORESIS+1
  2926  068A  0840               	movf	??_FOTORESIS,w
  2927  068B  00C5               	movwf	FOTORESIS@numero
  2928  068C  0841               	movf	??_FOTORESIS+1,w
  2929  068D  00C6               	movwf	FOTORESIS@numero+1
  2930  068E                     l1734:	
  2931  068E  084C               	movf	FOTORESIS@decimas,w
  2932  068F  00C0               	movwf	??_FOTORESIS
  2933  0690  01C1               	clrf	??_FOTORESIS+1
  2934  0691  0840               	movf	??_FOTORESIS,w
  2935  0692  00C7               	movwf	FOTORESIS@numero+2
  2936  0693  0841               	movf	??_FOTORESIS+1,w
  2937  0694  00C8               	movwf	FOTORESIS@numero+3
  2938  0695                     l1736:	
  2939  0695  084D               	movf	FOTORESIS@centesimas,w
  2940  0696  00C0               	movwf	??_FOTORESIS
  2941  0697  01C1               	clrf	??_FOTORESIS+1
  2942  0698  0840               	movf	??_FOTORESIS,w
  2943  0699  00C9               	movwf	FOTORESIS@numero+4
  2944  069A  0841               	movf	??_FOTORESIS+1,w
  2945  069B  00CA               	movwf	FOTORESIS@numero+5
  2946  069C                     l1738:	
  2947                           
  2948                           ;LIBRERIALCD.c: 212:     for (int i=0; i<3;i++){
  2949  069C  01D0               	clrf	FOTORESIS@i
  2950  069D  01D1               	clrf	FOTORESIS@i+1
  2951  069E                     l1744:	
  2952                           
  2953                           ;LIBRERIALCD.c: 213:         valor = numero[i];
  2954  069E  1283               	bcf	3,5	;RP0=0, select bank0
  2955  069F  1303               	bcf	3,6	;RP1=0, select bank0
  2956  06A0  0850               	movf	FOTORESIS@i,w
  2957  06A1  00C0               	movwf	??_FOTORESIS
  2958  06A2  0740               	addwf	??_FOTORESIS,w
  2959  06A3  3E45               	addlw	(low (FOTORESIS@numero| 0))& (0+255)
  2960  06A4  0084               	movwf	4
  2961  06A5  1383               	bcf	3,7	;select IRP bank0
  2962  06A6  0800               	movf	0,w
  2963  06A7  00C1               	movwf	??_FOTORESIS+1
  2964  06A8  0841               	movf	??_FOTORESIS+1,w
  2965  06A9  00D3               	movwf	FOTORESIS@valor
  2966  06AA                     l1746:	
  2967                           
  2968                           ;LIBRERIALCD.c: 214:         if (i == 0) {
  2969  06AA  0850               	movf	FOTORESIS@i,w
  2970  06AB  0451               	iorwf	FOTORESIS@i+1,w
  2971  06AC  1D03               	btfss	3,2
  2972  06AD  2EAF               	goto	u1431
  2973  06AE  2EB0               	goto	u1430
  2974  06AF                     u1431:	
  2975  06AF  2EB4               	goto	l1750
  2976  06B0                     u1430:	
  2977  06B0                     l1748:	
  2978                           
  2979                           ;LIBRERIALCD.c: 215:             coordenada = 11;
  2980  06B0  300B               	movlw	11
  2981  06B1  00C0               	movwf	??_FOTORESIS
  2982  06B2  0840               	movf	??_FOTORESIS,w
  2983  06B3  00D4               	movwf	FOTORESIS@coordenada
  2984  06B4                     l1750:	
  2985                           
  2986                           ;LIBRERIALCD.c: 217:         if (i == 1) {
  2987  06B4  0350               	decf	FOTORESIS@i,w
  2988  06B5  0451               	iorwf	FOTORESIS@i+1,w
  2989  06B6  1D03               	btfss	3,2
  2990  06B7  2EB9               	goto	u1441
  2991  06B8  2EBA               	goto	u1440
  2992  06B9                     u1441:	
  2993  06B9  2EBE               	goto	l1754
  2994  06BA                     u1440:	
  2995  06BA                     l1752:	
  2996                           
  2997                           ;LIBRERIALCD.c: 218:             coordenada = 13;
  2998  06BA  300D               	movlw	13
  2999  06BB  00C0               	movwf	??_FOTORESIS
  3000  06BC  0840               	movf	??_FOTORESIS,w
  3001  06BD  00D4               	movwf	FOTORESIS@coordenada
  3002  06BE                     l1754:	
  3003                           
  3004                           ;LIBRERIALCD.c: 220:         if (i == 2) {
  3005  06BE  3002               	movlw	2
  3006  06BF  0650               	xorwf	FOTORESIS@i,w
  3007  06C0  0451               	iorwf	FOTORESIS@i+1,w
  3008  06C1  1D03               	btfss	3,2
  3009  06C2  2EC4               	goto	u1451
  3010  06C3  2EC5               	goto	u1450
  3011  06C4                     u1451:	
  3012  06C4  2EC9               	goto	l1758
  3013  06C5                     u1450:	
  3014  06C5                     l1756:	
  3015                           
  3016                           ;LIBRERIALCD.c: 221:             coordenada = 14;
  3017  06C5  300E               	movlw	14
  3018  06C6  00C0               	movwf	??_FOTORESIS
  3019  06C7  0840               	movf	??_FOTORESIS,w
  3020  06C8  00D4               	movwf	FOTORESIS@coordenada
  3021  06C9                     l1758:	
  3022                           
  3023                           ;LIBRERIALCD.c: 223:         if (valor == 0){
  3024  06C9  0853               	movf	FOTORESIS@valor,w
  3025  06CA  1D03               	btfss	3,2
  3026  06CB  2ECD               	goto	u1461
  3027  06CC  2ECE               	goto	u1460
  3028  06CD                     u1461:	
  3029  06CD  2EE2               	goto	l1762
  3030  06CE                     u1460:	
  3031  06CE                     l1760:	
  3032                           
  3033                           ;LIBRERIALCD.c: 224:             lcddirection(coordenada,2,"0");
  3034  06CE  0854               	movf	FOTORESIS@coordenada,w
  3035  06CF  00C0               	movwf	??_FOTORESIS
  3036  06D0  01C1               	clrf	??_FOTORESIS+1
  3037  06D1  0840               	movf	??_FOTORESIS,w
  3038  06D2  00F8               	movwf	lcddirection@x
  3039  06D3  0841               	movf	??_FOTORESIS+1,w
  3040  06D4  00F9               	movwf	lcddirection@x+1
  3041  06D5  3002               	movlw	2
  3042  06D6  00FA               	movwf	lcddirection@y
  3043  06D7  3000               	movlw	0
  3044  06D8  00FB               	movwf	lcddirection@y+1
  3045  06D9  3050               	movlw	(low (((STR_7+1)-__stringbase)| (0+32768)))& (0+255)
  3046  06DA  00C2               	movwf	??_FOTORESIS+2
  3047  06DB  0842               	movf	??_FOTORESIS+2,w
  3048  06DC  00FC               	movwf	lcddirection@valor
  3049  06DD  120A  158A  2723  120A  118A  	fcall	_lcddirection
  3050  06E2                     l1762:	
  3051                           
  3052                           ;LIBRERIALCD.c: 226:         if (valor == 1){
  3053  06E2  1283               	bcf	3,5	;RP0=0, select bank0
  3054  06E3  1303               	bcf	3,6	;RP1=0, select bank0
  3055  06E4  0353               	decf	FOTORESIS@valor,w
  3056  06E5  1D03               	btfss	3,2
  3057  06E6  2EE8               	goto	u1471
  3058  06E7  2EE9               	goto	u1470
  3059  06E8                     u1471:	
  3060  06E8  2EFD               	goto	l1766
  3061  06E9                     u1470:	
  3062  06E9                     l1764:	
  3063                           
  3064                           ;LIBRERIALCD.c: 227:             lcddirection(coordenada,2,"1");
  3065  06E9  0854               	movf	FOTORESIS@coordenada,w
  3066  06EA  00C0               	movwf	??_FOTORESIS
  3067  06EB  01C1               	clrf	??_FOTORESIS+1
  3068  06EC  0840               	movf	??_FOTORESIS,w
  3069  06ED  00F8               	movwf	lcddirection@x
  3070  06EE  0841               	movf	??_FOTORESIS+1,w
  3071  06EF  00F9               	movwf	lcddirection@x+1
  3072  06F0  3002               	movlw	2
  3073  06F1  00FA               	movwf	lcddirection@y
  3074  06F2  3000               	movlw	0
  3075  06F3  00FB               	movwf	lcddirection@y+1
  3076  06F4  3056               	movlw	(low (((STR_8+1)-__stringbase)| (0+32768)))& (0+255)
  3077  06F5  00C2               	movwf	??_FOTORESIS+2
  3078  06F6  0842               	movf	??_FOTORESIS+2,w
  3079  06F7  00FC               	movwf	lcddirection@valor
  3080  06F8  120A  158A  2723  120A  118A  	fcall	_lcddirection
  3081  06FD                     l1766:	
  3082                           
  3083                           ;LIBRERIALCD.c: 229:         if (valor == 2){
  3084  06FD  3002               	movlw	2
  3085  06FE  1283               	bcf	3,5	;RP0=0, select bank0
  3086  06FF  1303               	bcf	3,6	;RP1=0, select bank0
  3087  0700  0653               	xorwf	FOTORESIS@valor,w
  3088  0701  1D03               	btfss	3,2
  3089  0702  2F04               	goto	u1481
  3090  0703  2F05               	goto	u1480
  3091  0704                     u1481:	
  3092  0704  2F19               	goto	l1770
  3093  0705                     u1480:	
  3094  0705                     l1768:	
  3095                           
  3096                           ;LIBRERIALCD.c: 230:             lcddirection(coordenada,2,"2");
  3097  0705  0854               	movf	FOTORESIS@coordenada,w
  3098  0706  00C0               	movwf	??_FOTORESIS
  3099  0707  01C1               	clrf	??_FOTORESIS+1
  3100  0708  0840               	movf	??_FOTORESIS,w
  3101  0709  00F8               	movwf	lcddirection@x
  3102  070A  0841               	movf	??_FOTORESIS+1,w
  3103  070B  00F9               	movwf	lcddirection@x+1
  3104  070C  3002               	movlw	2
  3105  070D  00FA               	movwf	lcddirection@y
  3106  070E  3000               	movlw	0
  3107  070F  00FB               	movwf	lcddirection@y+1
  3108  0710  305C               	movlw	(low (((STR_9+1)-__stringbase)| (0+32768)))& (0+255)
  3109  0711  00C2               	movwf	??_FOTORESIS+2
  3110  0712  0842               	movf	??_FOTORESIS+2,w
  3111  0713  00FC               	movwf	lcddirection@valor
  3112  0714  120A  158A  2723  120A  118A  	fcall	_lcddirection
  3113  0719                     l1770:	
  3114                           
  3115                           ;LIBRERIALCD.c: 232:         if (valor == 3){
  3116  0719  3003               	movlw	3
  3117  071A  1283               	bcf	3,5	;RP0=0, select bank0
  3118  071B  1303               	bcf	3,6	;RP1=0, select bank0
  3119  071C  0653               	xorwf	FOTORESIS@valor,w
  3120  071D  1D03               	btfss	3,2
  3121  071E  2F20               	goto	u1491
  3122  071F  2F21               	goto	u1490
  3123  0720                     u1491:	
  3124  0720  2F35               	goto	l1774
  3125  0721                     u1490:	
  3126  0721                     l1772:	
  3127                           
  3128                           ;LIBRERIALCD.c: 233:             lcddirection(coordenada,2,"3");
  3129  0721  0854               	movf	FOTORESIS@coordenada,w
  3130  0722  00C0               	movwf	??_FOTORESIS
  3131  0723  01C1               	clrf	??_FOTORESIS+1
  3132  0724  0840               	movf	??_FOTORESIS,w
  3133  0725  00F8               	movwf	lcddirection@x
  3134  0726  0841               	movf	??_FOTORESIS+1,w
  3135  0727  00F9               	movwf	lcddirection@x+1
  3136  0728  3002               	movlw	2
  3137  0729  00FA               	movwf	lcddirection@y
  3138  072A  3000               	movlw	0
  3139  072B  00FB               	movwf	lcddirection@y+1
  3140  072C  3062               	movlw	(low (((STR_10+1)-__stringbase)| (0+32768)))& (0+255)
  3141  072D  00C2               	movwf	??_FOTORESIS+2
  3142  072E  0842               	movf	??_FOTORESIS+2,w
  3143  072F  00FC               	movwf	lcddirection@valor
  3144  0730  120A  158A  2723  120A  118A  	fcall	_lcddirection
  3145  0735                     l1774:	
  3146                           
  3147                           ;LIBRERIALCD.c: 235:         if (valor == 4){
  3148  0735  3004               	movlw	4
  3149  0736  1283               	bcf	3,5	;RP0=0, select bank0
  3150  0737  1303               	bcf	3,6	;RP1=0, select bank0
  3151  0738  0653               	xorwf	FOTORESIS@valor,w
  3152  0739  1D03               	btfss	3,2
  3153  073A  2F3C               	goto	u1501
  3154  073B  2F3D               	goto	u1500
  3155  073C                     u1501:	
  3156  073C  2F51               	goto	l1778
  3157  073D                     u1500:	
  3158  073D                     l1776:	
  3159                           
  3160                           ;LIBRERIALCD.c: 236:             lcddirection(coordenada,2,"4");
  3161  073D  0854               	movf	FOTORESIS@coordenada,w
  3162  073E  00C0               	movwf	??_FOTORESIS
  3163  073F  01C1               	clrf	??_FOTORESIS+1
  3164  0740  0840               	movf	??_FOTORESIS,w
  3165  0741  00F8               	movwf	lcddirection@x
  3166  0742  0841               	movf	??_FOTORESIS+1,w
  3167  0743  00F9               	movwf	lcddirection@x+1
  3168  0744  3002               	movlw	2
  3169  0745  00FA               	movwf	lcddirection@y
  3170  0746  3000               	movlw	0
  3171  0747  00FB               	movwf	lcddirection@y+1
  3172  0748  3068               	movlw	(low (((STR_11+1)-__stringbase)| (0+32768)))& (0+255)
  3173  0749  00C2               	movwf	??_FOTORESIS+2
  3174  074A  0842               	movf	??_FOTORESIS+2,w
  3175  074B  00FC               	movwf	lcddirection@valor
  3176  074C  120A  158A  2723  120A  118A  	fcall	_lcddirection
  3177  0751                     l1778:	
  3178                           
  3179                           ;LIBRERIALCD.c: 238:         if (valor == 5){
  3180  0751  3005               	movlw	5
  3181  0752  1283               	bcf	3,5	;RP0=0, select bank0
  3182  0753  1303               	bcf	3,6	;RP1=0, select bank0
  3183  0754  0653               	xorwf	FOTORESIS@valor,w
  3184  0755  1D03               	btfss	3,2
  3185  0756  2F58               	goto	u1511
  3186  0757  2F59               	goto	u1510
  3187  0758                     u1511:	
  3188  0758  2F6D               	goto	l1782
  3189  0759                     u1510:	
  3190  0759                     l1780:	
  3191                           
  3192                           ;LIBRERIALCD.c: 239:             lcddirection(coordenada,2,"5");
  3193  0759  0854               	movf	FOTORESIS@coordenada,w
  3194  075A  00C0               	movwf	??_FOTORESIS
  3195  075B  01C1               	clrf	??_FOTORESIS+1
  3196  075C  0840               	movf	??_FOTORESIS,w
  3197  075D  00F8               	movwf	lcddirection@x
  3198  075E  0841               	movf	??_FOTORESIS+1,w
  3199  075F  00F9               	movwf	lcddirection@x+1
  3200  0760  3002               	movlw	2
  3201  0761  00FA               	movwf	lcddirection@y
  3202  0762  3000               	movlw	0
  3203  0763  00FB               	movwf	lcddirection@y+1
  3204  0764  306E               	movlw	(low (((STR_12+1)-__stringbase)| (0+32768)))& (0+255)
  3205  0765  00C2               	movwf	??_FOTORESIS+2
  3206  0766  0842               	movf	??_FOTORESIS+2,w
  3207  0767  00FC               	movwf	lcddirection@valor
  3208  0768  120A  158A  2723  120A  118A  	fcall	_lcddirection
  3209  076D                     l1782:	
  3210                           
  3211                           ;LIBRERIALCD.c: 241:         if (valor == 6){
  3212  076D  3006               	movlw	6
  3213  076E  1283               	bcf	3,5	;RP0=0, select bank0
  3214  076F  1303               	bcf	3,6	;RP1=0, select bank0
  3215  0770  0653               	xorwf	FOTORESIS@valor,w
  3216  0771  1D03               	btfss	3,2
  3217  0772  2F74               	goto	u1521
  3218  0773  2F75               	goto	u1520
  3219  0774                     u1521:	
  3220  0774  2F89               	goto	l1786
  3221  0775                     u1520:	
  3222  0775                     l1784:	
  3223                           
  3224                           ;LIBRERIALCD.c: 242:             lcddirection(coordenada,2,"6");
  3225  0775  0854               	movf	FOTORESIS@coordenada,w
  3226  0776  00C0               	movwf	??_FOTORESIS
  3227  0777  01C1               	clrf	??_FOTORESIS+1
  3228  0778  0840               	movf	??_FOTORESIS,w
  3229  0779  00F8               	movwf	lcddirection@x
  3230  077A  0841               	movf	??_FOTORESIS+1,w
  3231  077B  00F9               	movwf	lcddirection@x+1
  3232  077C  3002               	movlw	2
  3233  077D  00FA               	movwf	lcddirection@y
  3234  077E  3000               	movlw	0
  3235  077F  00FB               	movwf	lcddirection@y+1
  3236  0780  3074               	movlw	(low (((STR_13+1)-__stringbase)| (0+32768)))& (0+255)
  3237  0781  00C2               	movwf	??_FOTORESIS+2
  3238  0782  0842               	movf	??_FOTORESIS+2,w
  3239  0783  00FC               	movwf	lcddirection@valor
  3240  0784  120A  158A  2723  120A  118A  	fcall	_lcddirection
  3241  0789                     l1786:	
  3242                           
  3243                           ;LIBRERIALCD.c: 244:         if (valor == 7){
  3244  0789  3007               	movlw	7
  3245  078A  1283               	bcf	3,5	;RP0=0, select bank0
  3246  078B  1303               	bcf	3,6	;RP1=0, select bank0
  3247  078C  0653               	xorwf	FOTORESIS@valor,w
  3248  078D  1D03               	btfss	3,2
  3249  078E  2F90               	goto	u1531
  3250  078F  2F91               	goto	u1530
  3251  0790                     u1531:	
  3252  0790  2FA5               	goto	l1790
  3253  0791                     u1530:	
  3254  0791                     l1788:	
  3255                           
  3256                           ;LIBRERIALCD.c: 245:             lcddirection(coordenada,2,"7");
  3257  0791  0854               	movf	FOTORESIS@coordenada,w
  3258  0792  00C0               	movwf	??_FOTORESIS
  3259  0793  01C1               	clrf	??_FOTORESIS+1
  3260  0794  0840               	movf	??_FOTORESIS,w
  3261  0795  00F8               	movwf	lcddirection@x
  3262  0796  0841               	movf	??_FOTORESIS+1,w
  3263  0797  00F9               	movwf	lcddirection@x+1
  3264  0798  3002               	movlw	2
  3265  0799  00FA               	movwf	lcddirection@y
  3266  079A  3000               	movlw	0
  3267  079B  00FB               	movwf	lcddirection@y+1
  3268  079C  307A               	movlw	(low (((STR_14+1)-__stringbase)| (0+32768)))& (0+255)
  3269  079D  00C2               	movwf	??_FOTORESIS+2
  3270  079E  0842               	movf	??_FOTORESIS+2,w
  3271  079F  00FC               	movwf	lcddirection@valor
  3272  07A0  120A  158A  2723  120A  118A  	fcall	_lcddirection
  3273  07A5                     l1790:	
  3274                           
  3275                           ;LIBRERIALCD.c: 247:         if (valor == 8){
  3276  07A5  3008               	movlw	8
  3277  07A6  1283               	bcf	3,5	;RP0=0, select bank0
  3278  07A7  1303               	bcf	3,6	;RP1=0, select bank0
  3279  07A8  0653               	xorwf	FOTORESIS@valor,w
  3280  07A9  1D03               	btfss	3,2
  3281  07AA  2FAC               	goto	u1541
  3282  07AB  2FAD               	goto	u1540
  3283  07AC                     u1541:	
  3284  07AC  2FC1               	goto	l1794
  3285  07AD                     u1540:	
  3286  07AD                     l1792:	
  3287                           
  3288                           ;LIBRERIALCD.c: 248:             lcddirection(coordenada,2,"8");
  3289  07AD  0854               	movf	FOTORESIS@coordenada,w
  3290  07AE  00C0               	movwf	??_FOTORESIS
  3291  07AF  01C1               	clrf	??_FOTORESIS+1
  3292  07B0  0840               	movf	??_FOTORESIS,w
  3293  07B1  00F8               	movwf	lcddirection@x
  3294  07B2  0841               	movf	??_FOTORESIS+1,w
  3295  07B3  00F9               	movwf	lcddirection@x+1
  3296  07B4  3002               	movlw	2
  3297  07B5  00FA               	movwf	lcddirection@y
  3298  07B6  3000               	movlw	0
  3299  07B7  00FB               	movwf	lcddirection@y+1
  3300  07B8  307D               	movlw	(low (((STR_15+1)-__stringbase)| (0+32768)))& (0+255)
  3301  07B9  00C2               	movwf	??_FOTORESIS+2
  3302  07BA  0842               	movf	??_FOTORESIS+2,w
  3303  07BB  00FC               	movwf	lcddirection@valor
  3304  07BC  120A  158A  2723  120A  118A  	fcall	_lcddirection
  3305  07C1                     l1794:	
  3306                           
  3307                           ;LIBRERIALCD.c: 250:         if (valor == 9){
  3308  07C1  3009               	movlw	9
  3309  07C2  1283               	bcf	3,5	;RP0=0, select bank0
  3310  07C3  1303               	bcf	3,6	;RP1=0, select bank0
  3311  07C4  0653               	xorwf	FOTORESIS@valor,w
  3312  07C5  1D03               	btfss	3,2
  3313  07C6  2FC8               	goto	u1551
  3314  07C7  2FC9               	goto	u1550
  3315  07C8                     u1551:	
  3316  07C8  2FDD               	goto	l1798
  3317  07C9                     u1550:	
  3318  07C9                     l1796:	
  3319                           
  3320                           ;LIBRERIALCD.c: 251:             lcddirection(coordenada,2,"9");
  3321  07C9  0854               	movf	FOTORESIS@coordenada,w
  3322  07CA  00C0               	movwf	??_FOTORESIS
  3323  07CB  01C1               	clrf	??_FOTORESIS+1
  3324  07CC  0840               	movf	??_FOTORESIS,w
  3325  07CD  00F8               	movwf	lcddirection@x
  3326  07CE  0841               	movf	??_FOTORESIS+1,w
  3327  07CF  00F9               	movwf	lcddirection@x+1
  3328  07D0  3002               	movlw	2
  3329  07D1  00FA               	movwf	lcddirection@y
  3330  07D2  3000               	movlw	0
  3331  07D3  00FB               	movwf	lcddirection@y+1
  3332  07D4  3080               	movlw	(low (((STR_16+1)-__stringbase)| (0+32768)))& (0+255)
  3333  07D5  00C2               	movwf	??_FOTORESIS+2
  3334  07D6  0842               	movf	??_FOTORESIS+2,w
  3335  07D7  00FC               	movwf	lcddirection@valor
  3336  07D8  120A  158A  2723  120A  118A  	fcall	_lcddirection
  3337  07DD                     l1798:	
  3338                           
  3339                           ;LIBRERIALCD.c: 253:     }
  3340  07DD  3001               	movlw	1
  3341  07DE  1283               	bcf	3,5	;RP0=0, select bank0
  3342  07DF  1303               	bcf	3,6	;RP1=0, select bank0
  3343  07E0  07D0               	addwf	FOTORESIS@i,f
  3344  07E1  1803               	skipnc
  3345  07E2  0AD1               	incf	FOTORESIS@i+1,f
  3346  07E3  3000               	movlw	0
  3347  07E4  07D1               	addwf	FOTORESIS@i+1,f
  3348  07E5                     l1800:	
  3349  07E5  0851               	movf	FOTORESIS@i+1,w
  3350  07E6  3A80               	xorlw	128
  3351  07E7  00FF               	movwf	btemp+1
  3352  07E8  3080               	movlw	128
  3353  07E9  027F               	subwf	btemp+1,w
  3354  07EA  1D03               	skipz
  3355  07EB  2FEE               	goto	u1565
  3356  07EC  3003               	movlw	3
  3357  07ED  0250               	subwf	FOTORESIS@i,w
  3358  07EE                     u1565:	
  3359  07EE  1C03               	skipc
  3360  07EF  2FF1               	goto	u1561
  3361  07F0  2FF2               	goto	u1560
  3362  07F1                     u1561:	
  3363  07F1  2E9E               	goto	l1744
  3364  07F2                     u1560:	
  3365  07F2                     l217:	
  3366  07F2  0008               	return
  3367  07F3                     __end_of_FOTORESIS:	
  3368                           
  3369                           	psect	text9
  3370  0F23                     __ptext9:	
  3371 ;; *************** function _lcddirection *****************
  3372 ;; Defined at:
  3373 ;;		line 73 in file "LIBRERIALCD.c"
  3374 ;; Parameters:    Size  Location     Type
  3375 ;;  x               2    8[COMMON] int 
  3376 ;;  y               2   10[COMMON] int 
  3377 ;;  valor           1   12[COMMON] PTR unsigned char 
  3378 ;;		 -> STR_43(2), STR_42(2), STR_41(2), STR_40(2), 
  3379 ;;		 -> STR_39(2), STR_38(2), STR_37(2), STR_36(2), 
  3380 ;;		 -> STR_35(2), STR_34(2), STR_33(2), STR_32(2), 
  3381 ;;		 -> STR_31(2), STR_30(2), STR_29(2), STR_28(2), 
  3382 ;;		 -> STR_27(2), STR_26(2), STR_25(2), STR_24(2), 
  3383 ;;		 -> STR_23(3), STR_22(3), STR_21(3), STR_20(3), 
  3384 ;;		 -> STR_19(3), STR_18(3), STR_17(3), STR_16(3), 
  3385 ;;		 -> STR_15(3), STR_14(3), STR_13(3), STR_12(3), 
  3386 ;;		 -> STR_11(3), STR_10(3), STR_9(3), STR_8(3), 
  3387 ;;		 -> STR_7(3), STR_6(17), STR_5(17), STR_4(6), 
  3388 ;;		 -> STR_3(16), STR_2(6), STR_1(16), 
  3389 ;; Auto vars:     Size  Location     Type
  3390 ;;  posicion        1    0[BANK0 ] unsigned char 
  3391 ;; Return value:  Size  Location     Type
  3392 ;;                  1    wreg      void 
  3393 ;; Registers used:
  3394 ;;		wreg, fsr0l, fsr0h, status,2, status,0, btemp+1, pclath, cstack
  3395 ;; Tracked objects:
  3396 ;;		On entry : 0/0
  3397 ;;		On exit  : 0/0
  3398 ;;		Unchanged: 0/0
  3399 ;; Data sizes:     COMMON   BANK0   BANK1   BANK3   BANK2
  3400 ;;      Params:         5       0       0       0       0
  3401 ;;      Locals:         0       1       0       0       0
  3402 ;;      Temps:          1       0       0       0       0
  3403 ;;      Totals:         6       1       0       0       0
  3404 ;;Total ram usage:        7 bytes
  3405 ;; Hardware stack levels used:    1
  3406 ;; Hardware stack levels required when called:    4
  3407 ;; This function calls:
  3408 ;;		_Control
  3409 ;;		_impresion
  3410 ;; This function is called by:
  3411 ;;		_main
  3412 ;;		_POTENCIOMETRO
  3413 ;;		_FOTORESIS
  3414 ;;		_LCDCONT
  3415 ;; This function uses a non-reentrant model
  3416 ;;
  3417                           
  3418                           
  3419                           ;psect for function _lcddirection
  3420  0F23                     _lcddirection:	
  3421  0F23                     l1424:	
  3422                           ;incstack = 0
  3423                           ; Regs used in _lcddirection: [wreg-fsr0h+status,2+status,0+btemp+1+pclath+cstack]
  3424                           
  3425                           
  3426                           ;LIBRERIALCD.c: 74:     char posicion;;LIBRERIALCD.c: 75:     switch (y) {
  3427  0F23  2F34               	goto	l1434
  3428  0F24                     l1426:	
  3429                           
  3430                           ;LIBRERIALCD.c: 77:             posicion = 0x80 + x;
  3431  0F24  0878               	movf	lcddirection@x,w
  3432  0F25  3E80               	addlw	128
  3433  0F26  00FD               	movwf	??_lcddirection
  3434  0F27  087D               	movf	??_lcddirection,w
  3435  0F28  1283               	bcf	3,5	;RP0=0, select bank0
  3436  0F29  1303               	bcf	3,6	;RP1=0, select bank0
  3437  0F2A  00BC               	movwf	lcddirection@posicion
  3438                           
  3439                           ;LIBRERIALCD.c: 78:             break;
  3440  0F2B  2F41               	goto	l1436
  3441  0F2C                     l1428:	
  3442                           
  3443                           ;LIBRERIALCD.c: 80:             posicion = 0xC0 + x;
  3444  0F2C  0878               	movf	lcddirection@x,w
  3445  0F2D  3EC0               	addlw	192
  3446  0F2E  00FD               	movwf	??_lcddirection
  3447  0F2F  087D               	movf	??_lcddirection,w
  3448  0F30  1283               	bcf	3,5	;RP0=0, select bank0
  3449  0F31  1303               	bcf	3,6	;RP1=0, select bank0
  3450  0F32  00BC               	movwf	lcddirection@posicion
  3451                           
  3452                           ;LIBRERIALCD.c: 81:             break;
  3453  0F33  2F41               	goto	l1436
  3454  0F34                     l1434:	
  3455                           
  3456                           ; Switch on 2 bytes has been partitioned into a top level switch of size 1, and 1 sub-sw
      +                          itches
  3457                           ; Switch size 1, requested type "simple"
  3458                           ; Number of cases is 1, Range of values is 0 to 0
  3459                           ; switch strategies available:
  3460                           ; Name         Instructions Cycles
  3461                           ; simple_byte            4     3 (average)
  3462                           ; direct_byte           11     8 (fixed)
  3463                           ; jumptable            260     6 (fixed)
  3464                           ;	Chosen strategy is simple_byte
  3465  0F34  087B               	movf	lcddirection@y+1,w
  3466  0F35  3A00               	xorlw	0	; case 0
  3467  0F36  1903               	skipnz
  3468  0F37  2F39               	goto	l1926
  3469  0F38  2F24               	goto	l1426
  3470  0F39                     l1926:	
  3471                           
  3472                           ; Switch size 1, requested type "simple"
  3473                           ; Number of cases is 2, Range of values is 1 to 2
  3474                           ; switch strategies available:
  3475                           ; Name         Instructions Cycles
  3476                           ; simple_byte            7     4 (average)
  3477                           ; direct_byte           17    11 (fixed)
  3478                           ; jumptable            263     9 (fixed)
  3479                           ;	Chosen strategy is simple_byte
  3480  0F39  087A               	movf	lcddirection@y,w
  3481  0F3A  3A01               	xorlw	1	; case 1
  3482  0F3B  1903               	skipnz
  3483  0F3C  2F24               	goto	l1426
  3484  0F3D  3A03               	xorlw	3	; case 2
  3485  0F3E  1903               	skipnz
  3486  0F3F  2F2C               	goto	l1428
  3487  0F40  2F24               	goto	l1426
  3488  0F41                     l1436:	
  3489                           
  3490                           ;LIBRERIALCD.c: 86:     Control (posicion);
  3491  0F41  083C               	movf	lcddirection@posicion,w
  3492  0F42  120A  158A  26A9  120A  158A  	fcall	_Control
  3493  0F47                     l1438:	
  3494                           
  3495                           ;LIBRERIALCD.c: 87:     impresion (valor);
  3496  0F47  087C               	movf	lcddirection@valor,w
  3497  0F48  120A  158A  2704  120A  158A  	fcall	_impresion
  3498  0F4D                     l153:	
  3499  0F4D  0008               	return
  3500  0F4E                     __end_of_lcddirection:	
  3501                           
  3502                           	psect	text10
  3503  0F04                     __ptext10:	
  3504 ;; *************** function _impresion *****************
  3505 ;; Defined at:
  3506 ;;		line 66 in file "LIBRERIALCD.c"
  3507 ;; Parameters:    Size  Location     Type
  3508 ;;  valor           1    wreg     PTR unsigned char 
  3509 ;;		 -> STR_43(2), STR_42(2), STR_41(2), STR_40(2), 
  3510 ;;		 -> STR_39(2), STR_38(2), STR_37(2), STR_36(2), 
  3511 ;;		 -> STR_35(2), STR_34(2), STR_33(2), STR_32(2), 
  3512 ;;		 -> STR_31(2), STR_30(2), STR_29(2), STR_28(2), 
  3513 ;;		 -> STR_27(2), STR_26(2), STR_25(2), STR_24(2), 
  3514 ;;		 -> STR_23(3), STR_22(3), STR_21(3), STR_20(3), 
  3515 ;;		 -> STR_19(3), STR_18(3), STR_17(3), STR_16(3), 
  3516 ;;		 -> STR_15(3), STR_14(3), STR_13(3), STR_12(3), 
  3517 ;;		 -> STR_11(3), STR_10(3), STR_9(3), STR_8(3), 
  3518 ;;		 -> STR_7(3), STR_6(17), STR_5(17), STR_4(6), 
  3519 ;;		 -> STR_3(16), STR_2(6), STR_1(16), 
  3520 ;; Auto vars:     Size  Location     Type
  3521 ;;  valor           1    7[COMMON] PTR unsigned char 
  3522 ;;		 -> STR_43(2), STR_42(2), STR_41(2), STR_40(2), 
  3523 ;;		 -> STR_39(2), STR_38(2), STR_37(2), STR_36(2), 
  3524 ;;		 -> STR_35(2), STR_34(2), STR_33(2), STR_32(2), 
  3525 ;;		 -> STR_31(2), STR_30(2), STR_29(2), STR_28(2), 
  3526 ;;		 -> STR_27(2), STR_26(2), STR_25(2), STR_24(2), 
  3527 ;;		 -> STR_23(3), STR_22(3), STR_21(3), STR_20(3), 
  3528 ;;		 -> STR_19(3), STR_18(3), STR_17(3), STR_16(3), 
  3529 ;;		 -> STR_15(3), STR_14(3), STR_13(3), STR_12(3), 
  3530 ;;		 -> STR_11(3), STR_10(3), STR_9(3), STR_8(3), 
  3531 ;;		 -> STR_7(3), STR_6(17), STR_5(17), STR_4(6), 
  3532 ;;		 -> STR_3(16), STR_2(6), STR_1(16), 
  3533 ;; Return value:  Size  Location     Type
  3534 ;;                  1    wreg      void 
  3535 ;; Registers used:
  3536 ;;		wreg, fsr0l, fsr0h, status,2, status,0, pclath, cstack
  3537 ;; Tracked objects:
  3538 ;;		On entry : 0/0
  3539 ;;		On exit  : 0/0
  3540 ;;		Unchanged: 0/0
  3541 ;; Data sizes:     COMMON   BANK0   BANK1   BANK3   BANK2
  3542 ;;      Params:         0       0       0       0       0
  3543 ;;      Locals:         1       0       0       0       0
  3544 ;;      Temps:          1       0       0       0       0
  3545 ;;      Totals:         2       0       0       0       0
  3546 ;;Total ram usage:        2 bytes
  3547 ;; Hardware stack levels used:    1
  3548 ;; Hardware stack levels required when called:    3
  3549 ;; This function calls:
  3550 ;;		_ON
  3551 ;; This function is called by:
  3552 ;;		_lcddirection
  3553 ;; This function uses a non-reentrant model
  3554 ;;
  3555                           
  3556                           
  3557                           ;psect for function _impresion
  3558  0F04                     _impresion:	
  3559                           
  3560                           ;incstack = 0
  3561                           ; Regs used in _impresion: [wreg-fsr0h+status,2+status,0+pclath+cstack]
  3562                           ;impresion@valor stored from wreg
  3563  0F04  00F7               	movwf	impresion@valor
  3564  0F05                     l1416:	
  3565                           
  3566                           ;LIBRERIALCD.c: 67:     while (*valor){
  3567  0F05  2F16               	goto	l1422
  3568  0F06                     l1418:	
  3569                           
  3570                           ;LIBRERIALCD.c: 68:         ON(*valor);
  3571  0F06  0877               	movf	impresion@valor,w
  3572  0F07  0084               	movwf	4
  3573  0F08  120A  118A  2003  120A  158A  	fcall	stringdir
  3574  0F0D  120A  158A  26BE  120A  158A  	fcall	_ON
  3575  0F12                     l1420:	
  3576                           
  3577                           ;LIBRERIALCD.c: 69:         valor++;
  3578  0F12  3001               	movlw	1
  3579  0F13  00F6               	movwf	??_impresion
  3580  0F14  0876               	movf	??_impresion,w
  3581  0F15  07F7               	addwf	impresion@valor,f
  3582  0F16                     l1422:	
  3583                           
  3584                           ;LIBRERIALCD.c: 67:     while (*valor){
  3585  0F16  0877               	movf	impresion@valor,w
  3586  0F17  0084               	movwf	4
  3587  0F18  120A  118A  2003  120A  158A  	fcall	stringdir
  3588  0F1D  3A00               	xorlw	0
  3589  0F1E  1D03               	skipz
  3590  0F1F  2F21               	goto	u861
  3591  0F20  2F22               	goto	u860
  3592  0F21                     u861:	
  3593  0F21  2F06               	goto	l1418
  3594  0F22                     u860:	
  3595  0F22                     l145:	
  3596  0F22  0008               	return
  3597  0F23                     __end_of_impresion:	
  3598                           
  3599                           	psect	text11
  3600  0EBE                     __ptext11:	
  3601 ;; *************** function _ON *****************
  3602 ;; Defined at:
  3603 ;;		line 44 in file "LIBRERIALCD.c"
  3604 ;; Parameters:    Size  Location     Type
  3605 ;;  valor1          1    wreg     unsigned char 
  3606 ;; Auto vars:     Size  Location     Type
  3607 ;;  valor1          1    5[COMMON] unsigned char 
  3608 ;; Return value:  Size  Location     Type
  3609 ;;                  1    wreg      void 
  3610 ;; Registers used:
  3611 ;;		wreg, status,2, status,0, pclath, cstack
  3612 ;; Tracked objects:
  3613 ;;		On entry : 0/0
  3614 ;;		On exit  : 0/0
  3615 ;;		Unchanged: 0/0
  3616 ;; Data sizes:     COMMON   BANK0   BANK1   BANK3   BANK2
  3617 ;;      Params:         0       0       0       0       0
  3618 ;;      Locals:         1       0       0       0       0
  3619 ;;      Temps:          0       0       0       0       0
  3620 ;;      Totals:         1       0       0       0       0
  3621 ;;Total ram usage:        1 bytes
  3622 ;; Hardware stack levels used:    1
  3623 ;; Hardware stack levels required when called:    2
  3624 ;; This function calls:
  3625 ;;		_Tiempocontrol
  3626 ;;		_delay_us
  3627 ;; This function is called by:
  3628 ;;		_impresion
  3629 ;; This function uses a non-reentrant model
  3630 ;;
  3631                           
  3632                           
  3633                           ;psect for function _ON
  3634  0EBE                     _ON:	
  3635                           
  3636                           ;incstack = 0
  3637                           ; Regs used in _ON: [wreg+status,2+status,0+pclath+cstack]
  3638                           ;ON@valor1 stored from wreg
  3639  0EBE  00F5               	movwf	ON@valor1
  3640  0EBF                     l1400:	
  3641                           
  3642                           ;LIBRERIALCD.c: 45:     PORTDbits.RD6 =1;
  3643  0EBF  1283               	bcf	3,5	;RP0=0, select bank0
  3644  0EC0  1303               	bcf	3,6	;RP1=0, select bank0
  3645  0EC1  1708               	bsf	8,6	;volatile
  3646  0EC2                     l1402:	
  3647                           
  3648                           ;LIBRERIALCD.c: 46:     PORTB = valor1;
  3649  0EC2  0875               	movf	ON@valor1,w
  3650  0EC3  0086               	movwf	6	;volatile
  3651  0EC4                     l1404:	
  3652                           
  3653                           ;LIBRERIALCD.c: 47:     Tiempocontrol();
  3654  0EC4  120A  158A  26EB  120A  158A  	fcall	_Tiempocontrol
  3655  0EC9                     l1406:	
  3656                           
  3657                           ;LIBRERIALCD.c: 48:     delay_us(50);
  3658  0EC9  3032               	movlw	50
  3659  0ECA  00F0               	movwf	delay_us@dus
  3660  0ECB  3000               	movlw	0
  3661  0ECC  00F1               	movwf	delay_us@dus+1
  3662  0ECD  120A  158A  26D3  120A  158A  	fcall	_delay_us
  3663  0ED2                     l136:	
  3664  0ED2  0008               	return
  3665  0ED3                     __end_of_ON:	
  3666                           
  3667                           	psect	text12
  3668  0EA9                     __ptext12:	
  3669 ;; *************** function _Control *****************
  3670 ;; Defined at:
  3671 ;;		line 37 in file "LIBRERIALCD.c"
  3672 ;; Parameters:    Size  Location     Type
  3673 ;;  valor           1    wreg     unsigned char 
  3674 ;; Auto vars:     Size  Location     Type
  3675 ;;  valor           1    7[COMMON] unsigned char 
  3676 ;; Return value:  Size  Location     Type
  3677 ;;                  1    wreg      void 
  3678 ;; Registers used:
  3679 ;;		wreg, status,2, status,0, btemp+1, pclath, cstack
  3680 ;; Tracked objects:
  3681 ;;		On entry : 0/0
  3682 ;;		On exit  : 0/0
  3683 ;;		Unchanged: 0/0
  3684 ;; Data sizes:     COMMON   BANK0   BANK1   BANK3   BANK2
  3685 ;;      Params:         0       0       0       0       0
  3686 ;;      Locals:         1       0       0       0       0
  3687 ;;      Temps:          0       0       0       0       0
  3688 ;;      Totals:         1       0       0       0       0
  3689 ;;Total ram usage:        1 bytes
  3690 ;; Hardware stack levels used:    1
  3691 ;; Hardware stack levels required when called:    2
  3692 ;; This function calls:
  3693 ;;		_Tiempocontrol
  3694 ;;		_delay_ms
  3695 ;; This function is called by:
  3696 ;;		_LCDvalue
  3697 ;;		_lcddirection
  3698 ;;		_clean
  3699 ;; This function uses a non-reentrant model
  3700 ;;
  3701                           
  3702                           
  3703                           ;psect for function _Control
  3704  0EA9                     _Control:	
  3705                           
  3706                           ;incstack = 0
  3707                           ; Regs used in _Control: [wreg+status,2+status,0+btemp+1+pclath+cstack]
  3708                           ;Control@valor stored from wreg
  3709  0EA9  00F7               	movwf	Control@valor
  3710  0EAA                     l1408:	
  3711                           
  3712                           ;LIBRERIALCD.c: 38:     PORTDbits.RD6 =0;
  3713  0EAA  1283               	bcf	3,5	;RP0=0, select bank0
  3714  0EAB  1303               	bcf	3,6	;RP1=0, select bank0
  3715  0EAC  1308               	bcf	8,6	;volatile
  3716  0EAD                     l1410:	
  3717                           
  3718                           ;LIBRERIALCD.c: 39:     PORTB = valor;
  3719  0EAD  0877               	movf	Control@valor,w
  3720  0EAE  0086               	movwf	6	;volatile
  3721  0EAF                     l1412:	
  3722                           
  3723                           ;LIBRERIALCD.c: 40:     Tiempocontrol();
  3724  0EAF  120A  158A  26EB  120A  158A  	fcall	_Tiempocontrol
  3725  0EB4                     l1414:	
  3726                           
  3727                           ;LIBRERIALCD.c: 41:     delay_ms(2);
  3728  0EB4  3002               	movlw	2
  3729  0EB5  00F0               	movwf	delay_ms@dms
  3730  0EB6  3000               	movlw	0
  3731  0EB7  00F1               	movwf	delay_ms@dms+1
  3732  0EB8  120A  158A  277A  120A  158A  	fcall	_delay_ms
  3733  0EBD                     l133:	
  3734  0EBD  0008               	return
  3735  0EBE                     __end_of_Control:	
  3736                           
  3737                           	psect	text13
  3738  0F7A                     __ptext13:	
  3739 ;; *************** function _delay_ms *****************
  3740 ;; Defined at:
  3741 ;;		line 19 in file "LIBRERIALCD.c"
  3742 ;; Parameters:    Size  Location     Type
  3743 ;;  dms             2    0[COMMON] int 
  3744 ;; Auto vars:     Size  Location     Type
  3745 ;;  j               2    5[COMMON] int 
  3746 ;;  i               2    3[COMMON] int 
  3747 ;; Return value:  Size  Location     Type
  3748 ;;                  1    wreg      void 
  3749 ;; Registers used:
  3750 ;;		wreg, status,2, btemp+1
  3751 ;; Tracked objects:
  3752 ;;		On entry : 0/0
  3753 ;;		On exit  : 0/0
  3754 ;;		Unchanged: 0/0
  3755 ;; Data sizes:     COMMON   BANK0   BANK1   BANK3   BANK2
  3756 ;;      Params:         2       0       0       0       0
  3757 ;;      Locals:         4       0       0       0       0
  3758 ;;      Temps:          1       0       0       0       0
  3759 ;;      Totals:         7       0       0       0       0
  3760 ;;Total ram usage:        7 bytes
  3761 ;; Hardware stack levels used:    1
  3762 ;; This function calls:
  3763 ;;		Nothing
  3764 ;; This function is called by:
  3765 ;;		_main
  3766 ;;		_Control
  3767 ;;		_LCDvalue
  3768 ;; This function uses a non-reentrant model
  3769 ;;
  3770                           
  3771                           
  3772                           ;psect for function _delay_ms
  3773  0F7A                     _delay_ms:	
  3774  0F7A                     l1386:	
  3775                           ;incstack = 0
  3776                           ; Regs used in _delay_ms: [wreg+status,2+btemp+1]
  3777                           
  3778                           
  3779                           ;LIBRERIALCD.c: 20:     for(int i = 0; i<dms; i++){
  3780  0F7A  01F3               	clrf	delay_ms@i
  3781  0F7B  01F4               	clrf	delay_ms@i+1
  3782  0F7C  2F98               	goto	l116
  3783  0F7D                     l1388:	
  3784                           
  3785                           ;LIBRERIALCD.c: 21:         for(int j = 0; j<255; j++);
  3786  0F7D  01F5               	clrf	delay_ms@j
  3787  0F7E  01F6               	clrf	delay_ms@j+1
  3788  0F7F                     l1394:	
  3789  0F7F  3001               	movlw	1
  3790  0F80  07F5               	addwf	delay_ms@j,f
  3791  0F81  1803               	skipnc
  3792  0F82  0AF6               	incf	delay_ms@j+1,f
  3793  0F83  3000               	movlw	0
  3794  0F84  07F6               	addwf	delay_ms@j+1,f
  3795  0F85                     l1396:	
  3796  0F85  0876               	movf	delay_ms@j+1,w
  3797  0F86  3A80               	xorlw	128
  3798  0F87  00FF               	movwf	btemp+1
  3799  0F88  3080               	movlw	128
  3800  0F89  027F               	subwf	btemp+1,w
  3801  0F8A  1D03               	skipz
  3802  0F8B  2F8E               	goto	u845
  3803  0F8C  30FF               	movlw	255
  3804  0F8D  0275               	subwf	delay_ms@j,w
  3805  0F8E                     u845:	
  3806  0F8E  1C03               	skipc
  3807  0F8F  2F91               	goto	u841
  3808  0F90  2F92               	goto	u840
  3809  0F91                     u841:	
  3810  0F91  2F7F               	goto	l1394
  3811  0F92                     u840:	
  3812  0F92                     l1398:	
  3813                           
  3814                           ;LIBRERIALCD.c: 22:     }
  3815  0F92  3001               	movlw	1
  3816  0F93  07F3               	addwf	delay_ms@i,f
  3817  0F94  1803               	skipnc
  3818  0F95  0AF4               	incf	delay_ms@i+1,f
  3819  0F96  3000               	movlw	0
  3820  0F97  07F4               	addwf	delay_ms@i+1,f
  3821  0F98                     l116:	
  3822  0F98  0874               	movf	delay_ms@i+1,w
  3823  0F99  3A80               	xorlw	128
  3824  0F9A  00F2               	movwf	??_delay_ms
  3825  0F9B  0871               	movf	delay_ms@dms+1,w
  3826  0F9C  3A80               	xorlw	128
  3827  0F9D  0272               	subwf	??_delay_ms,w
  3828  0F9E  1D03               	skipz
  3829  0F9F  2FA2               	goto	u855
  3830  0FA0  0870               	movf	delay_ms@dms,w
  3831  0FA1  0273               	subwf	delay_ms@i,w
  3832  0FA2                     u855:	
  3833  0FA2  1C03               	skipc
  3834  0FA3  2FA5               	goto	u851
  3835  0FA4  2FA6               	goto	u850
  3836  0FA5                     u851:	
  3837  0FA5  2F7D               	goto	l1388
  3838  0FA6                     u850:	
  3839  0FA6                     l121:	
  3840  0FA6  0008               	return
  3841  0FA7                     __end_of_delay_ms:	
  3842                           
  3843                           	psect	text14
  3844  0EEB                     __ptext14:	
  3845 ;; *************** function _Tiempocontrol *****************
  3846 ;; Defined at:
  3847 ;;		line 30 in file "LIBRERIALCD.c"
  3848 ;; Parameters:    Size  Location     Type
  3849 ;;		None
  3850 ;; Auto vars:     Size  Location     Type
  3851 ;;		None
  3852 ;; Return value:  Size  Location     Type
  3853 ;;                  1    wreg      void 
  3854 ;; Registers used:
  3855 ;;		wreg, status,2, status,0, pclath, cstack
  3856 ;; Tracked objects:
  3857 ;;		On entry : 0/0
  3858 ;;		On exit  : 0/0
  3859 ;;		Unchanged: 0/0
  3860 ;; Data sizes:     COMMON   BANK0   BANK1   BANK3   BANK2
  3861 ;;      Params:         0       0       0       0       0
  3862 ;;      Locals:         0       0       0       0       0
  3863 ;;      Temps:          0       0       0       0       0
  3864 ;;      Totals:         0       0       0       0       0
  3865 ;;Total ram usage:        0 bytes
  3866 ;; Hardware stack levels used:    1
  3867 ;; Hardware stack levels required when called:    1
  3868 ;; This function calls:
  3869 ;;		_delay_us
  3870 ;; This function is called by:
  3871 ;;		_Control
  3872 ;;		_ON
  3873 ;; This function uses a non-reentrant model
  3874 ;;
  3875                           
  3876                           
  3877                           ;psect for function _Tiempocontrol
  3878  0EEB                     _Tiempocontrol:	
  3879  0EEB                     l1380:	
  3880                           ;incstack = 0
  3881                           ; Regs used in _Tiempocontrol: [wreg+status,2+status,0+pclath+cstack]
  3882                           
  3883                           
  3884                           ;LIBRERIALCD.c: 31:     PORTDbits.RD7 = 1;
  3885  0EEB  1283               	bcf	3,5	;RP0=0, select bank0
  3886  0EEC  1303               	bcf	3,6	;RP1=0, select bank0
  3887  0EED  1788               	bsf	8,7	;volatile
  3888  0EEE                     l1382:	
  3889                           
  3890                           ;LIBRERIALCD.c: 32:     delay_us(5);
  3891  0EEE  3005               	movlw	5
  3892  0EEF  00F0               	movwf	delay_us@dus
  3893  0EF0  3000               	movlw	0
  3894  0EF1  00F1               	movwf	delay_us@dus+1
  3895  0EF2  120A  158A  26D3  120A  158A  	fcall	_delay_us
  3896  0EF7                     l1384:	
  3897                           
  3898                           ;LIBRERIALCD.c: 33:     PORTDbits.RD7 = 0;
  3899  0EF7  1283               	bcf	3,5	;RP0=0, select bank0
  3900  0EF8  1303               	bcf	3,6	;RP1=0, select bank0
  3901  0EF9  1388               	bcf	8,7	;volatile
  3902                           
  3903                           ;LIBRERIALCD.c: 34:     delay_us(5);
  3904  0EFA  3005               	movlw	5
  3905  0EFB  00F0               	movwf	delay_us@dus
  3906  0EFC  3000               	movlw	0
  3907  0EFD  00F1               	movwf	delay_us@dus+1
  3908  0EFE  120A  158A  26D3  120A  158A  	fcall	_delay_us
  3909  0F03                     l130:	
  3910  0F03  0008               	return
  3911  0F04                     __end_of_Tiempocontrol:	
  3912                           
  3913                           	psect	text15
  3914  0ED3                     __ptext15:	
  3915 ;; *************** function _delay_us *****************
  3916 ;; Defined at:
  3917 ;;		line 25 in file "LIBRERIALCD.c"
  3918 ;; Parameters:    Size  Location     Type
  3919 ;;  dus             2    0[COMMON] int 
  3920 ;; Auto vars:     Size  Location     Type
  3921 ;;  i               2    3[COMMON] int 
  3922 ;; Return value:  Size  Location     Type
  3923 ;;                  1    wreg      void 
  3924 ;; Registers used:
  3925 ;;		wreg, status,2
  3926 ;; Tracked objects:
  3927 ;;		On entry : 0/0
  3928 ;;		On exit  : 0/0
  3929 ;;		Unchanged: 0/0
  3930 ;; Data sizes:     COMMON   BANK0   BANK1   BANK3   BANK2
  3931 ;;      Params:         2       0       0       0       0
  3932 ;;      Locals:         2       0       0       0       0
  3933 ;;      Temps:          1       0       0       0       0
  3934 ;;      Totals:         5       0       0       0       0
  3935 ;;Total ram usage:        5 bytes
  3936 ;; Hardware stack levels used:    1
  3937 ;; This function calls:
  3938 ;;		Nothing
  3939 ;; This function is called by:
  3940 ;;		_Tiempocontrol
  3941 ;;		_ON
  3942 ;; This function uses a non-reentrant model
  3943 ;;
  3944                           
  3945                           
  3946                           ;psect for function _delay_us
  3947  0ED3                     _delay_us:	
  3948  0ED3                     l1376:	
  3949                           ;incstack = 0
  3950                           ; Regs used in _delay_us: [wreg+status,2]
  3951                           
  3952                           
  3953                           ;LIBRERIALCD.c: 26:     for(int i = 0; i<dus; i++);
  3954  0ED3  01F3               	clrf	delay_us@i
  3955  0ED4  01F4               	clrf	delay_us@i+1
  3956  0ED5  2EDC               	goto	l124
  3957  0ED6                     l1378:	
  3958  0ED6  3001               	movlw	1
  3959  0ED7  07F3               	addwf	delay_us@i,f
  3960  0ED8  1803               	skipnc
  3961  0ED9  0AF4               	incf	delay_us@i+1,f
  3962  0EDA  3000               	movlw	0
  3963  0EDB  07F4               	addwf	delay_us@i+1,f
  3964  0EDC                     l124:	
  3965  0EDC  0874               	movf	delay_us@i+1,w
  3966  0EDD  3A80               	xorlw	128
  3967  0EDE  00F2               	movwf	??_delay_us
  3968  0EDF  0871               	movf	delay_us@dus+1,w
  3969  0EE0  3A80               	xorlw	128
  3970  0EE1  0272               	subwf	??_delay_us,w
  3971  0EE2  1D03               	skipz
  3972  0EE3  2EE6               	goto	u835
  3973  0EE4  0870               	movf	delay_us@dus,w
  3974  0EE5  0273               	subwf	delay_us@i,w
  3975  0EE6                     u835:	
  3976  0EE6  1C03               	skipc
  3977  0EE7  2EE9               	goto	u831
  3978  0EE8  2EEA               	goto	u830
  3979  0EE9                     u831:	
  3980  0EE9  2ED6               	goto	l1378
  3981  0EEA                     u830:	
  3982  0EEA                     l127:	
  3983  0EEA  0008               	return
  3984  0EEB                     __end_of_delay_us:	
  3985                           
  3986                           	psect	text16
  3987  0FA7                     __ptext16:	
  3988 ;; *************** function ___awmod *****************
  3989 ;; Defined at:
  3990 ;;		line 5 in file "C:\Program Files (x86)\Microchip\xc8\v2.10\pic\sources\c90\common\awmod.c"
  3991 ;; Parameters:    Size  Location     Type
  3992 ;;  divisor         2    0[COMMON] int 
  3993 ;;  dividend        2    2[COMMON] int 
  3994 ;; Auto vars:     Size  Location     Type
  3995 ;;  sign            1    6[COMMON] unsigned char 
  3996 ;;  counter         1    5[COMMON] unsigned char 
  3997 ;; Return value:  Size  Location     Type
  3998 ;;                  2    0[COMMON] int 
  3999 ;; Registers used:
  4000 ;;		wreg, status,2, status,0
  4001 ;; Tracked objects:
  4002 ;;		On entry : 0/0
  4003 ;;		On exit  : 0/0
  4004 ;;		Unchanged: 0/0
  4005 ;; Data sizes:     COMMON   BANK0   BANK1   BANK3   BANK2
  4006 ;;      Params:         4       0       0       0       0
  4007 ;;      Locals:         2       0       0       0       0
  4008 ;;      Temps:          1       0       0       0       0
  4009 ;;      Totals:         7       0       0       0       0
  4010 ;;Total ram usage:        7 bytes
  4011 ;; Hardware stack levels used:    1
  4012 ;; This function calls:
  4013 ;;		Nothing
  4014 ;; This function is called by:
  4015 ;;		_POTENCIOMETRO
  4016 ;;		_FOTORESIS
  4017 ;; This function uses a non-reentrant model
  4018 ;;
  4019                           
  4020                           
  4021                           ;psect for function ___awmod
  4022  0FA7                     ___awmod:	
  4023  0FA7                     l1528:	
  4024                           ;incstack = 0
  4025                           ; Regs used in ___awmod: [wreg+status,2+status,0]
  4026                           
  4027  0FA7  01F6               	clrf	___awmod@sign
  4028  0FA8                     l1530:	
  4029  0FA8  1FF3               	btfss	___awmod@dividend+1,7
  4030  0FA9  2FAB               	goto	u1071
  4031  0FAA  2FAC               	goto	u1070
  4032  0FAB                     u1071:	
  4033  0FAB  2FB3               	goto	l1536
  4034  0FAC                     u1070:	
  4035  0FAC                     l1532:	
  4036  0FAC  09F2               	comf	___awmod@dividend,f
  4037  0FAD  09F3               	comf	___awmod@dividend+1,f
  4038  0FAE  0AF2               	incf	___awmod@dividend,f
  4039  0FAF  1903               	skipnz
  4040  0FB0  0AF3               	incf	___awmod@dividend+1,f
  4041  0FB1                     l1534:	
  4042  0FB1  01F6               	clrf	___awmod@sign
  4043  0FB2  0AF6               	incf	___awmod@sign,f
  4044  0FB3                     l1536:	
  4045  0FB3  1FF1               	btfss	___awmod@divisor+1,7
  4046  0FB4  2FB6               	goto	u1081
  4047  0FB5  2FB7               	goto	u1080
  4048  0FB6                     u1081:	
  4049  0FB6  2FBC               	goto	l1540
  4050  0FB7                     u1080:	
  4051  0FB7                     l1538:	
  4052  0FB7  09F0               	comf	___awmod@divisor,f
  4053  0FB8  09F1               	comf	___awmod@divisor+1,f
  4054  0FB9  0AF0               	incf	___awmod@divisor,f
  4055  0FBA  1903               	skipnz
  4056  0FBB  0AF1               	incf	___awmod@divisor+1,f
  4057  0FBC                     l1540:	
  4058  0FBC  0870               	movf	___awmod@divisor,w
  4059  0FBD  0471               	iorwf	___awmod@divisor+1,w
  4060  0FBE  1903               	btfsc	3,2
  4061  0FBF  2FC1               	goto	u1091
  4062  0FC0  2FC2               	goto	u1090
  4063  0FC1                     u1091:	
  4064  0FC1  2FF1               	goto	l1558
  4065  0FC2                     u1090:	
  4066  0FC2                     l1542:	
  4067  0FC2  01F5               	clrf	___awmod@counter
  4068  0FC3  0AF5               	incf	___awmod@counter,f
  4069  0FC4  2FD0               	goto	l1548
  4070  0FC5                     l1544:	
  4071  0FC5  3001               	movlw	1
  4072  0FC6                     u1105:	
  4073  0FC6  1003               	clrc
  4074  0FC7  0DF0               	rlf	___awmod@divisor,f
  4075  0FC8  0DF1               	rlf	___awmod@divisor+1,f
  4076  0FC9  3EFF               	addlw	-1
  4077  0FCA  1D03               	skipz
  4078  0FCB  2FC6               	goto	u1105
  4079  0FCC                     l1546:	
  4080  0FCC  3001               	movlw	1
  4081  0FCD  00F4               	movwf	??___awmod
  4082  0FCE  0874               	movf	??___awmod,w
  4083  0FCF  07F5               	addwf	___awmod@counter,f
  4084  0FD0                     l1548:	
  4085  0FD0  1FF1               	btfss	___awmod@divisor+1,7
  4086  0FD1  2FD3               	goto	u1111
  4087  0FD2  2FD4               	goto	u1110
  4088  0FD3                     u1111:	
  4089  0FD3  2FC5               	goto	l1544
  4090  0FD4                     u1110:	
  4091  0FD4                     l1550:	
  4092  0FD4  0871               	movf	___awmod@divisor+1,w
  4093  0FD5  0273               	subwf	___awmod@dividend+1,w
  4094  0FD6  1D03               	skipz
  4095  0FD7  2FDA               	goto	u1125
  4096  0FD8  0870               	movf	___awmod@divisor,w
  4097  0FD9  0272               	subwf	___awmod@dividend,w
  4098  0FDA                     u1125:	
  4099  0FDA  1C03               	skipc
  4100  0FDB  2FDD               	goto	u1121
  4101  0FDC  2FDE               	goto	u1120
  4102  0FDD                     u1121:	
  4103  0FDD  2FE4               	goto	l1554
  4104  0FDE                     u1120:	
  4105  0FDE                     l1552:	
  4106  0FDE  0870               	movf	___awmod@divisor,w
  4107  0FDF  02F2               	subwf	___awmod@dividend,f
  4108  0FE0  0871               	movf	___awmod@divisor+1,w
  4109  0FE1  1C03               	skipc
  4110  0FE2  03F3               	decf	___awmod@dividend+1,f
  4111  0FE3  02F3               	subwf	___awmod@dividend+1,f
  4112  0FE4                     l1554:	
  4113  0FE4  3001               	movlw	1
  4114  0FE5                     u1135:	
  4115  0FE5  1003               	clrc
  4116  0FE6  0CF1               	rrf	___awmod@divisor+1,f
  4117  0FE7  0CF0               	rrf	___awmod@divisor,f
  4118  0FE8  3EFF               	addlw	-1
  4119  0FE9  1D03               	skipz
  4120  0FEA  2FE5               	goto	u1135
  4121  0FEB                     l1556:	
  4122  0FEB  3001               	movlw	1
  4123  0FEC  02F5               	subwf	___awmod@counter,f
  4124  0FED  1D03               	btfss	3,2
  4125  0FEE  2FF0               	goto	u1141
  4126  0FEF  2FF1               	goto	u1140
  4127  0FF0                     u1141:	
  4128  0FF0  2FD4               	goto	l1550
  4129  0FF1                     u1140:	
  4130  0FF1                     l1558:	
  4131  0FF1  0876               	movf	___awmod@sign,w
  4132  0FF2  1903               	btfsc	3,2
  4133  0FF3  2FF5               	goto	u1151
  4134  0FF4  2FF6               	goto	u1150
  4135  0FF5                     u1151:	
  4136  0FF5  2FFB               	goto	l1562
  4137  0FF6                     u1150:	
  4138  0FF6                     l1560:	
  4139  0FF6  09F2               	comf	___awmod@dividend,f
  4140  0FF7  09F3               	comf	___awmod@dividend+1,f
  4141  0FF8  0AF2               	incf	___awmod@dividend,f
  4142  0FF9  1903               	skipnz
  4143  0FFA  0AF3               	incf	___awmod@dividend+1,f
  4144  0FFB                     l1562:	
  4145  0FFB  0873               	movf	___awmod@dividend+1,w
  4146  0FFC  00F1               	movwf	?___awmod+1
  4147  0FFD  0872               	movf	___awmod@dividend,w
  4148  0FFE  00F0               	movwf	?___awmod
  4149  0FFF                     l472:	
  4150  0FFF  0008               	return
  4151  1000                     __end_of___awmod:	
  4152                           
  4153                           	psect	text17
  4154  0090                     __ptext17:	
  4155 ;; *************** function ___awdiv *****************
  4156 ;; Defined at:
  4157 ;;		line 5 in file "C:\Program Files (x86)\Microchip\xc8\v2.10\pic\sources\c90\common\awdiv.c"
  4158 ;; Parameters:    Size  Location     Type
  4159 ;;  divisor         2    7[COMMON] int 
  4160 ;;  dividend        2    9[COMMON] int 
  4161 ;; Auto vars:     Size  Location     Type
  4162 ;;  quotient        2    2[BANK0 ] int 
  4163 ;;  sign            1    1[BANK0 ] unsigned char 
  4164 ;;  counter         1    0[BANK0 ] unsigned char 
  4165 ;; Return value:  Size  Location     Type
  4166 ;;                  2    7[COMMON] int 
  4167 ;; Registers used:
  4168 ;;		wreg, status,2, status,0
  4169 ;; Tracked objects:
  4170 ;;		On entry : 0/0
  4171 ;;		On exit  : 0/0
  4172 ;;		Unchanged: 0/0
  4173 ;; Data sizes:     COMMON   BANK0   BANK1   BANK3   BANK2
  4174 ;;      Params:         4       0       0       0       0
  4175 ;;      Locals:         0       4       0       0       0
  4176 ;;      Temps:          1       0       0       0       0
  4177 ;;      Totals:         5       4       0       0       0
  4178 ;;Total ram usage:        9 bytes
  4179 ;; Hardware stack levels used:    1
  4180 ;; This function calls:
  4181 ;;		Nothing
  4182 ;; This function is called by:
  4183 ;;		_POTENCIOMETRO
  4184 ;;		_FOTORESIS
  4185 ;; This function uses a non-reentrant model
  4186 ;;
  4187                           
  4188                           
  4189                           ;psect for function ___awdiv
  4190  0090                     ___awdiv:	
  4191  0090                     l1484:	
  4192                           ;incstack = 0
  4193                           ; Regs used in ___awdiv: [wreg+status,2+status,0]
  4194                           
  4195  0090  1283               	bcf	3,5	;RP0=0, select bank0
  4196  0091  1303               	bcf	3,6	;RP1=0, select bank0
  4197  0092  01BD               	clrf	___awdiv@sign
  4198  0093                     l1486:	
  4199  0093  1FF8               	btfss	___awdiv@divisor+1,7
  4200  0094  2896               	goto	u971
  4201  0095  2897               	goto	u970
  4202  0096                     u971:	
  4203  0096  289E               	goto	l1492
  4204  0097                     u970:	
  4205  0097                     l1488:	
  4206  0097  09F7               	comf	___awdiv@divisor,f
  4207  0098  09F8               	comf	___awdiv@divisor+1,f
  4208  0099  0AF7               	incf	___awdiv@divisor,f
  4209  009A  1903               	skipnz
  4210  009B  0AF8               	incf	___awdiv@divisor+1,f
  4211  009C                     l1490:	
  4212  009C  01BD               	clrf	___awdiv@sign
  4213  009D  0ABD               	incf	___awdiv@sign,f
  4214  009E                     l1492:	
  4215  009E  1FFA               	btfss	___awdiv@dividend+1,7
  4216  009F  28A1               	goto	u981
  4217  00A0  28A2               	goto	u980
  4218  00A1                     u981:	
  4219  00A1  28AB               	goto	l1498
  4220  00A2                     u980:	
  4221  00A2                     l1494:	
  4222  00A2  09F9               	comf	___awdiv@dividend,f
  4223  00A3  09FA               	comf	___awdiv@dividend+1,f
  4224  00A4  0AF9               	incf	___awdiv@dividend,f
  4225  00A5  1903               	skipnz
  4226  00A6  0AFA               	incf	___awdiv@dividend+1,f
  4227  00A7                     l1496:	
  4228  00A7  3001               	movlw	1
  4229  00A8  00FB               	movwf	??___awdiv
  4230  00A9  087B               	movf	??___awdiv,w
  4231  00AA  06BD               	xorwf	___awdiv@sign,f
  4232  00AB                     l1498:	
  4233  00AB  01BE               	clrf	___awdiv@quotient
  4234  00AC  01BF               	clrf	___awdiv@quotient+1
  4235  00AD                     l1500:	
  4236  00AD  0877               	movf	___awdiv@divisor,w
  4237  00AE  0478               	iorwf	___awdiv@divisor+1,w
  4238  00AF  1903               	btfsc	3,2
  4239  00B0  28B2               	goto	u991
  4240  00B1  28B3               	goto	u990
  4241  00B2                     u991:	
  4242  00B2  28EA               	goto	l1520
  4243  00B3                     u990:	
  4244  00B3                     l1502:	
  4245  00B3  01BC               	clrf	___awdiv@counter
  4246  00B4  0ABC               	incf	___awdiv@counter,f
  4247  00B5  28C1               	goto	l1508
  4248  00B6                     l1504:	
  4249  00B6  3001               	movlw	1
  4250  00B7                     u1005:	
  4251  00B7  1003               	clrc
  4252  00B8  0DF7               	rlf	___awdiv@divisor,f
  4253  00B9  0DF8               	rlf	___awdiv@divisor+1,f
  4254  00BA  3EFF               	addlw	-1
  4255  00BB  1D03               	skipz
  4256  00BC  28B7               	goto	u1005
  4257  00BD                     l1506:	
  4258  00BD  3001               	movlw	1
  4259  00BE  00FB               	movwf	??___awdiv
  4260  00BF  087B               	movf	??___awdiv,w
  4261  00C0  07BC               	addwf	___awdiv@counter,f
  4262  00C1                     l1508:	
  4263  00C1  1FF8               	btfss	___awdiv@divisor+1,7
  4264  00C2  28C4               	goto	u1011
  4265  00C3  28C5               	goto	u1010
  4266  00C4                     u1011:	
  4267  00C4  28B6               	goto	l1504
  4268  00C5                     u1010:	
  4269  00C5                     l1510:	
  4270  00C5  3001               	movlw	1
  4271  00C6                     u1025:	
  4272  00C6  1003               	clrc
  4273  00C7  0DBE               	rlf	___awdiv@quotient,f
  4274  00C8  0DBF               	rlf	___awdiv@quotient+1,f
  4275  00C9  3EFF               	addlw	-1
  4276  00CA  1D03               	skipz
  4277  00CB  28C6               	goto	u1025
  4278  00CC  0878               	movf	___awdiv@divisor+1,w
  4279  00CD  027A               	subwf	___awdiv@dividend+1,w
  4280  00CE  1D03               	skipz
  4281  00CF  28D2               	goto	u1035
  4282  00D0  0877               	movf	___awdiv@divisor,w
  4283  00D1  0279               	subwf	___awdiv@dividend,w
  4284  00D2                     u1035:	
  4285  00D2  1C03               	skipc
  4286  00D3  28D5               	goto	u1031
  4287  00D4  28D6               	goto	u1030
  4288  00D5                     u1031:	
  4289  00D5  28DD               	goto	l1516
  4290  00D6                     u1030:	
  4291  00D6                     l1512:	
  4292  00D6  0877               	movf	___awdiv@divisor,w
  4293  00D7  02F9               	subwf	___awdiv@dividend,f
  4294  00D8  0878               	movf	___awdiv@divisor+1,w
  4295  00D9  1C03               	skipc
  4296  00DA  03FA               	decf	___awdiv@dividend+1,f
  4297  00DB  02FA               	subwf	___awdiv@dividend+1,f
  4298  00DC                     l1514:	
  4299  00DC  143E               	bsf	___awdiv@quotient,0
  4300  00DD                     l1516:	
  4301  00DD  3001               	movlw	1
  4302  00DE                     u1045:	
  4303  00DE  1003               	clrc
  4304  00DF  0CF8               	rrf	___awdiv@divisor+1,f
  4305  00E0  0CF7               	rrf	___awdiv@divisor,f
  4306  00E1  3EFF               	addlw	-1
  4307  00E2  1D03               	skipz
  4308  00E3  28DE               	goto	u1045
  4309  00E4                     l1518:	
  4310  00E4  3001               	movlw	1
  4311  00E5  02BC               	subwf	___awdiv@counter,f
  4312  00E6  1D03               	btfss	3,2
  4313  00E7  28E9               	goto	u1051
  4314  00E8  28EA               	goto	u1050
  4315  00E9                     u1051:	
  4316  00E9  28C5               	goto	l1510
  4317  00EA                     u1050:	
  4318  00EA                     l1520:	
  4319  00EA  083D               	movf	___awdiv@sign,w
  4320  00EB  1903               	btfsc	3,2
  4321  00EC  28EE               	goto	u1061
  4322  00ED  28EF               	goto	u1060
  4323  00EE                     u1061:	
  4324  00EE  28F4               	goto	l1524
  4325  00EF                     u1060:	
  4326  00EF                     l1522:	
  4327  00EF  09BE               	comf	___awdiv@quotient,f
  4328  00F0  09BF               	comf	___awdiv@quotient+1,f
  4329  00F1  0ABE               	incf	___awdiv@quotient,f
  4330  00F2  1903               	skipnz
  4331  00F3  0ABF               	incf	___awdiv@quotient+1,f
  4332  00F4                     l1524:	
  4333  00F4  083F               	movf	___awdiv@quotient+1,w
  4334  00F5  00F8               	movwf	?___awdiv+1
  4335  00F6  083E               	movf	___awdiv@quotient,w
  4336  00F7  00F7               	movwf	?___awdiv
  4337  00F8                     l459:	
  4338  00F8  0008               	return
  4339  00F9                     __end_of___awdiv:	
  4340  007E                     btemp	set	126	;btemp
  4341  007E                     wtemp0	set	126


Data Sizes:
    Strings     129
    Constant    0
    Data        0
    BSS         28
    Persistent  0
    Stack       0

Auto Spaces:
    Space          Size  Autos    Used
    COMMON           14     14      14
    BANK0            80     28      56
    BANK1            80      0       0
    BANK3            96      0       0
    BANK2            96      0       0

Pointer List with Targets:

    lcddirection@valor	PTR unsigned char  size(1) Largest target is 17
		 -> STR_43(CODE[2]), STR_42(CODE[2]), STR_41(CODE[2]), STR_40(CODE[2]), 
		 -> STR_39(CODE[2]), STR_38(CODE[2]), STR_37(CODE[2]), STR_36(CODE[2]), 
		 -> STR_35(CODE[2]), STR_34(CODE[2]), STR_33(CODE[2]), STR_32(CODE[2]), 
		 -> STR_31(CODE[2]), STR_30(CODE[2]), STR_29(CODE[2]), STR_28(CODE[2]), 
		 -> STR_27(CODE[2]), STR_26(CODE[2]), STR_25(CODE[2]), STR_24(CODE[2]), 
		 -> STR_23(CODE[3]), STR_22(CODE[3]), STR_21(CODE[3]), STR_20(CODE[3]), 
		 -> STR_19(CODE[3]), STR_18(CODE[3]), STR_17(CODE[3]), STR_16(CODE[3]), 
		 -> STR_15(CODE[3]), STR_14(CODE[3]), STR_13(CODE[3]), STR_12(CODE[3]), 
		 -> STR_11(CODE[3]), STR_10(CODE[3]), STR_9(CODE[3]), STR_8(CODE[3]), 
		 -> STR_7(CODE[3]), STR_6(CODE[17]), STR_5(CODE[17]), STR_4(CODE[6]), 
		 -> STR_3(CODE[16]), STR_2(CODE[6]), STR_1(CODE[16]), 

    impresion@valor	PTR unsigned char  size(1) Largest target is 17
		 -> STR_43(CODE[2]), STR_42(CODE[2]), STR_41(CODE[2]), STR_40(CODE[2]), 
		 -> STR_39(CODE[2]), STR_38(CODE[2]), STR_37(CODE[2]), STR_36(CODE[2]), 
		 -> STR_35(CODE[2]), STR_34(CODE[2]), STR_33(CODE[2]), STR_32(CODE[2]), 
		 -> STR_31(CODE[2]), STR_30(CODE[2]), STR_29(CODE[2]), STR_28(CODE[2]), 
		 -> STR_27(CODE[2]), STR_26(CODE[2]), STR_25(CODE[2]), STR_24(CODE[2]), 
		 -> STR_23(CODE[3]), STR_22(CODE[3]), STR_21(CODE[3]), STR_20(CODE[3]), 
		 -> STR_19(CODE[3]), STR_18(CODE[3]), STR_17(CODE[3]), STR_16(CODE[3]), 
		 -> STR_15(CODE[3]), STR_14(CODE[3]), STR_13(CODE[3]), STR_12(CODE[3]), 
		 -> STR_11(CODE[3]), STR_10(CODE[3]), STR_9(CODE[3]), STR_8(CODE[3]), 
		 -> STR_7(CODE[3]), STR_6(CODE[17]), STR_5(CODE[17]), STR_4(CODE[6]), 
		 -> STR_3(CODE[16]), STR_2(CODE[6]), STR_1(CODE[16]), 


Critical Paths under _main in COMMON

    _main->_lcddirection
    _clean->_Control
    _UART_Init->___aldiv
    _POTENCIOMETRO->_lcddirection
    _LCDvalue->_Control
    _FOTORESIS->_lcddirection
    _lcddirection->_Control
    _lcddirection->_impresion
    _impresion->_ON
    _ON->_delay_us
    _Control->_delay_ms
    _Tiempocontrol->_delay_us
    ___awdiv->___awmod

Critical Paths under _main in BANK0

    _main->_FOTORESIS
    _main->_POTENCIOMETRO
    _UART_Init->___aldiv
    _POTENCIOMETRO->___awdiv
    _FOTORESIS->___awdiv

Critical Paths under _main in BANK1

    None.

Critical Paths under _main in BANK3

    None.

Critical Paths under _main in BANK2

    None.

Call Graph Tables:

 ---------------------------------------------------------------------------------
 (Depth) Function   	        Calls       Base Space   Used Autos Params    Refs
 ---------------------------------------------------------------------------------
 (0) _main                                                 3     3      0   45239
                                             25 BANK0      3     3      0
                          _FOTORESIS
                           _LCDvalue
                      _POTENCIOMETRO
                    _UART_Data_Ready
                          _UART_Init
                          _UART_Read
                              _clean
                           _delay_ms
                       _lcddirection
 ---------------------------------------------------------------------------------
 (1) _clean                                                0     0      0     768
                            _Control
 ---------------------------------------------------------------------------------
 (1) _UART_Read                                            0     0      0       0
 ---------------------------------------------------------------------------------
 (1) _UART_Init                                           18    14      4     836
                                              9 COMMON     2     2      0
                                              6 BANK0     16    12      4
                            ___aldiv
 ---------------------------------------------------------------------------------
 (2) ___aldiv                                             15     7      8     604
                                              0 COMMON     9     1      8
                                              0 BANK0      6     6      0
 ---------------------------------------------------------------------------------
 (1) _UART_Data_Ready                                      0     0      0       0
 ---------------------------------------------------------------------------------
 (1) _POTENCIOMETRO                                       21    21      0   15284
                                              4 BANK0     21    21      0
                            ___awdiv
                            ___awmod
                       _lcddirection
 ---------------------------------------------------------------------------------
 (1) _LCDvalue                                             0     0      0    1240
                            _Control
                           _delay_ms
 ---------------------------------------------------------------------------------
 (1) _FOTORESIS                                           21    21      0   15284
                                              4 BANK0     21    21      0
                            ___awdiv
                            ___awmod
                       _lcddirection
 ---------------------------------------------------------------------------------
 (1) _lcddirection                                         7     2      5   11355
                                              8 COMMON     6     1      5
                                              0 BANK0      1     1      0
                            _Control
                          _impresion
 ---------------------------------------------------------------------------------
 (2) _impresion                                            2     2      0     648
                                              6 COMMON     2     2      0
                                 _ON
 ---------------------------------------------------------------------------------
 (3) _ON                                                   1     1      0     570
                                              5 COMMON     1     1      0
                      _Tiempocontrol
                           _delay_us
 ---------------------------------------------------------------------------------
 (2) _Control                                              1     1      0     768
                                              7 COMMON     1     1      0
                      _Tiempocontrol
                           _delay_ms
 ---------------------------------------------------------------------------------
 (3) _delay_ms                                             7     5      2     472
                                              0 COMMON     7     5      2
 ---------------------------------------------------------------------------------
 (4) _Tiempocontrol                                        0     0      0     274
                           _delay_us
 ---------------------------------------------------------------------------------
 (4) _delay_us                                             5     3      2     274
                                              0 COMMON     5     3      2
 ---------------------------------------------------------------------------------
 (2) ___awmod                                              7     3      4    2120
                                              0 COMMON     7     3      4
 ---------------------------------------------------------------------------------
 (2) ___awdiv                                              9     5      4     908
                                              7 COMMON     5     1      4
                                              0 BANK0      4     4      0
                            ___awmod (ARG)
 ---------------------------------------------------------------------------------
 Estimated maximum stack depth 4
 ---------------------------------------------------------------------------------

 Call Graph Graphs:

 _main (ROOT)
   _FOTORESIS
     ___awdiv
       ___awmod (ARG)
     ___awmod
     _lcddirection
       _Control
         _Tiempocontrol
           _delay_us
         _delay_ms
       _impresion
         _ON
           _Tiempocontrol
             _delay_us
           _delay_us
   _LCDvalue
     _Control
       _Tiempocontrol
         _delay_us
       _delay_ms
     _delay_ms
   _POTENCIOMETRO
     ___awdiv
       ___awmod (ARG)
     ___awmod
     _lcddirection
       _Control
         _Tiempocontrol
           _delay_us
         _delay_ms
       _impresion
         _ON
           _Tiempocontrol
             _delay_us
           _delay_us
   _UART_Data_Ready
   _UART_Init
     ___aldiv
   _UART_Read
   _clean
     _Control
       _Tiempocontrol
         _delay_us
       _delay_ms
   _delay_ms
   _lcddirection
     _Control
       _Tiempocontrol
         _delay_us
       _delay_ms
     _impresion
       _ON
         _Tiempocontrol
           _delay_us
         _delay_us

 Address spaces:
Name               Size   Autos  Total    Cost      Usage
BITCOMMON            E      0       0       0        0.0%
EEDATA             100      0       0       0        0.0%
NULL                 0      0       0       0        0.0%
CODE                 0      0       0       0        0.0%
COMMON               E      E       E       1      100.0%
BITSFR0              0      0       0       1        0.0%
SFR0                 0      0       0       1        0.0%
BITSFR1              0      0       0       2        0.0%
SFR1                 0      0       0       2        0.0%
STACK                0      0       0       2        0.0%
ABS                  0      0      46       3        0.0%
BITBANK0            50      0       0       4        0.0%
BITSFR3              0      0       0       4        0.0%
SFR3                 0      0       0       4        0.0%
BANK0               50     1C      38       5       70.0%
BITSFR2              0      0       0       5        0.0%
SFR2                 0      0       0       5        0.0%
BITBANK1            50      0       0       6        0.0%
BANK1               50      0       0       7        0.0%
BITBANK3            60      0       0       8        0.0%
BANK3               60      0       0       9        0.0%
BITBANK2            60      0       0      10        0.0%
BANK2               60      0       0      11        0.0%
DATA                 0      0      46      12        0.0%


Microchip Technology PIC Macro Assembler V2.10 build 88905656 
Symbol Table                                                                                   Mon May 11 18:18:48 2020

                       _a 003A                         _b 0030                         pc 0002  
             __CFG_CP$OFF 0000                        l43 026F                        l52 0E99  
                      l55 0EA0                        l49 008F                        l95 0377  
                      _ON 0EBE              ___awdiv@sign 003D                        fsr 0004  
           ?_lcddirection 0078                       ?_ON 0070                       l121 0FA6  
                     l130 0F03                       l124 0EDC                       l116 0F98  
                     l220 0E98                       l133 0EBD                       l127 0EEA  
                     l136 0ED2                       l145 0F22                       l153 0F4D  
                     l217 07F2                       l139 0F79                       l371 010D  
                     l196 05C8                       l381 0195                       l472 0FFF  
                     l459 00F8              __CFG_CPD$OFF 0000                       u830 0EEA  
                     u910 0144                       u831 0EE9                       u911 0143  
                     u840 0F92                       u841 0F91                       u905 0135  
                     u850 0FA6                       u930 015F                       u835 0EE6  
                     u851 0FA5                       u931 015E                       u860 0F22  
                     u845 0F8E                       u861 0F21                       u925 0146  
                     u950 017D                       u870 0100                       u855 0FA2  
                     u951 017C                       u935 015B                       u871 00FF  
                     u960 0182                       u880 0111                       u961 0181  
                     u945 016F                       u881 0110                       u970 0097  
                     u890 0130                       _POT 0038                       u971 0096  
                     u891 012F                       u980 00A2                       u981 00A1  
                     u990 00B3                       u991 00B2             _FOTORESIS$886 004E  
                     _dms 002E                       _dus 002C                       fsr0 0004  
                     indf 0000              ___awmod@sign 0076                      ??_ON 0075  
            __CFG_LVP$OFF 0000                      l1400 0EBF                      l1410 0EAD  
                    l1402 0EC2                      l1500 00AD                      l1412 0EAF  
                    l1404 0EC4                      l1420 0F12                      l1510 00C5  
                    l1502 00B3                      l1414 0EB4                      l1406 0EC9  
                    l1422 0F16                      l1512 00D6                      l1504 00B6  
                    l1520 00EA                      l1408 0EAA                      l1416 0F05  
                    l1424 0F23                      l1522 00EF                      l1514 00DC  
                    l1506 00BD                      l1530 0FA8                      l1418 0F06  
                    l1426 0F24                      l1434 0F34                      l1610 0F58  
                    l1602 0F4E                      l1450 0111                      l1524 00F4  
                    l1516 00DD                      l1508 00C1                      l1540 0FBC  
                    l1532 0FAC                      l1380 0EEB                      l1428 0F2C  
                    l1436 0F41                      l1612 0F61                      l1604 0F52  
                    l1700 057B                      l1460 0133                      l1452 011C  
                    l1444 00F9                      l1620 0E92                      l1518 00E4  
                    l1550 0FD4                      l1542 0FC2                      l1534 0FB1  
                    l1382 0EEE                      l1438 0F47                      l1614 0F67  
                    l1606 0F53                      l1710 05BB                      l1702 0583  
                    l1630 03B0                      l1622 03A5                      l1470 016D  
                    l1462 0140                      l1454 0120                      l1446 00FC  
                    l1560 0FF6                      l1552 0FDE                      l1544 0FC5  
                    l1536 0FB3                      l1528 0FA7                      l1376 0ED3  
                    l1384 0EF7                      l1800 07E5                      l1720 05D7  
                    l1712 05CC                      l1616 0F6D                      l1608 0F56  
                    l1704 0597                      l1640 0457                      l1632 03DA  
                    l1624 03AB                      l1480 018D                      l1472 016E  
                    l1464 0144                      l1456 0128                      l1448 0100  
                    l1490 009C                      l1562 0FFB                      l1554 0FE4  
                    l1546 0FCC                      l1538 0FB7                      l1378 0ED6  
                    l1394 0F7F                      l1386 0F7A                      l1730 067E  
                    l1722 0601                      l1714 05D2                      l1618 0F73  
                    l1706 059F                      l1642 0460                      l1634 03F0  
                    l1626 03AF                      l1474 0177                      l1466 014D  
                    l1458 0130                      l1570 01F8                      l1810 0270  
                    l1492 009E                      l1484 0090                      l1556 0FEB  
                    l1548 0FD0                      l1396 0F85                      l1388 0F7D  
                    l1732 0687                      l1724 0617                      l1716 05D6  
                    l1708 05B3                      l1660 048A                      l1644 0467  
                    l1636 042C                      l1628 03AF                      l1468 015F  
                    l1476 017D                      l1580 0262                      l1572 0251  
                    l1820 02D6                      l1812 027A                      l1494 00A2  
                    l1486 0093                      l1558 0FF1                      l1398 0F92  
                    l1750 06B4                      l1734 068E                      l1726 0653  
                    l1718 05D6                      l1670 04A4                      l1662 0490  
                    l1654 0477                      l1646 046E                      l1638 0442  
                    l1478 0182                      l1582 0265                      l1574 0254  
                    l1566 0196                      l1830 0317                      l1822 02E8  
                    l1814 028C                      l1496 00A7                      l1488 0097  
                    l1760 06CE                      l1752 06BA                      l1744 069E  
                    l1736 0695                      l1728 0669                      l1680 04EF  
                    l1672 04B8                      l1664 0494                      l1656 0483  
                    l1648 0475                      l1592 008A                      l1584 0268  
                    l1576 025D                      l1568 01EF                      l1840 034C  
                    l1832 0324                      l1824 02FA                      l1816 02A8  
                    l1498 00AB                      l1770 0719                      l1762 06E2  
                    l1754 06BE                      l1746 06AA                      l1738 069C  
                    l1690 052F                      l1682 04F7                      l1674 04BF  
                    l1666 049B                      l1658 0489                      l1586 0269  
                    l1578 0261                      l1850 0374                      l1842 0357  
                    l1834 0333                      l1826 0309                      l1818 02BA  
                    l1780 0759                      l1772 0721                      l1764 06E9  
                    l1756 06C5                      l1748 06B0                      l1692 0543  
                    l1684 050B                      l1676 04D3                      l1668 049F  
                    l1588 026C                      l1596 0E99                      l1860 0396  
                    l1844 035E                      l1852 0377                      l1836 033B  
                    l1828 030D                      l1926 0F39                      l1790 07A5  
                    l1782 076D                      l1774 0735                      l1766 06FD  
                    l1758 06C9                      l1694 054B                      l1686 0513  
                    l1678 04DB                      l1598 0E9F                      l1854 037D  
                    l1846 0369                      l1838 0346                      l1792 07AD  
                    l1784 0775                      l1776 073D                      l1768 0705  
                    l1696 055F                      l1688 0527                      l1856 0385  
                    l1848 0370                      l1794 07C1                      l1786 0789  
                    l1778 0751                      l1698 0567                      l1858 038E  
                    l1796 07C9                      l1788 0791                      l1798 07DD  
                    STR_1 003B                      STR_2 0051                      STR_3 002B  
                    STR_4 004B                      STR_5 0009                      STR_6 001A  
                    STR_7 0057                      STR_8 005D                      STR_9 0063  
                    _BRGH 04C2                      _CREN 00C4                      u1010 00C5  
                    u1011 00C4                      u1005 00B7                      u1030 00D6  
                    u1110 0FD4                      u1031 00D5                      u1111 0FD3  
                    u1120 0FDE                      u1200 0208                      u1025 00C6  
                    u1121 0FDD                      u1105 0FC6                      u1050 00EA  
                    u1210 0221                      u1051 00E9                      u1035 00D2  
                    u1060 00EF                      u1140 0FF1                      u1300 04A4  
                    _CONT 0034                      u1061 00EE                      u1045 00DE  
                    u1141 0FF0                      u1125 0FDA                      u1301 04A3  
                    u1221 0233                      u1205 0203                      u1150 0FF6  
                    u1070 0FAC                      u1310 04BF                      u1230 025D  
                    u1222 0234                      u1151 0FF5                      u1135 0FE5  
                    u1071 0FAB                      u1311 04BE                      u1231 025C  
                    u1223 0239                      u1215 021C                      u1080 0FB7  
                    u1400 05C8                      u1320 04DB                      u1224 023A  
                    u1160 01A6                      u1240 0E9F                      u1081 0FB6  
                    u1401 05C7                      u1321 04DA                      u1225 023F  
                    u1241 0E9E                      u1090 0FC2                      u1410 05D2  
                    u1330 04F7                      u1250 03AB                      u1226 0240  
                    u1170 01BF                      u1091 0FC1                      u1411 05D1  
                    u1331 04F6                      u1251 03AA                      u1500 073D  
                    u1420 0682                      u1340 0513                      u1260 045B  
                    u1501 073C                      u1405 05C4                      u1341 0512  
                    u1181 01D1                      u1165 01A1                      u1510 0759  
                    u1430 06B0                      u1350 052F                      u1270 0489  
                    u1190 01F8                      u1182 01D2                      u1511 0758  
                    u1431 06AF                      u1351 052E                      u1271 0488  
                    u1191 01F7                      u1183 01D7                      u1175 01BA  
                    u1520 0775                      u1440 06BA                      u1360 054B  
                    u1280 0490                      u1184 01D8                      u1600 034C  
                    u1521 0774                      u1441 06B9                      u1361 054A  
                    u1281 048F                      u1185 01DD                      u1601 034B  
                    u1530 0791                      u1450 06C5                      u1370 0567  
                    u1290 049B                      u1186 01DE                      u1610 035E  
                    u1531 0790                      u1451 06C4                      u1371 0566  
                    u1291 049A                      u1611 035D                      u1540 07AD  
                    u1460 06CE                      u1380 0583                      u1620 0370  
                    u1541 07AC                      u1461 06CD                      u1381 0582  
                    u1621 036F                      u1550 07C9                      u1470 06E9  
                    u1390 059F                      u1551 07C8                      u1471 06E8  
                    u1391 059E                      u1560 07F2                      u1480 0705  
                    u1561 07F1                      u1481 0704                      u1490 0721  
                    u1491 0720                      u1580 0317                      u1565 07EE  
                    u1637 032C                      u1581 0316                      u1590 033B  
                    u1591 033A                      _FOTO 0036                      _RCIF 0065  
                    _SPEN 00C7                      _OTRO 0032                      _TRMT 04C1  
                    _TXEN 04C5                      _SYNC 04C4              __CFG_WRT$OFF 0000  
                    _main 0270                      btemp 007E             __CFG_BOREN$ON 0000  
      __size_of_FOTORESIS 022A                      start 0000             __CFG_IESO$OFF 0000  
            Control@valor 0077             __CFG_MCLRE$ON 0000           __end_of_Control 0EBE  
          ??_lcddirection 007D           __end_of___aldiv 0196                     ?_main 0070  
         __end_of___awdiv 00F9                     STR_10 0069                     STR_11 006F  
                   STR_12 0075                     STR_20 006C                     STR_13 007B  
                   STR_21 0072                     STR_30 007C                     STR_14 0081  
                   STR_22 0078                     STR_31 0082                     STR_15 0084  
                   STR_23 007E                     STR_24 0058                     STR_40 007C  
                   STR_32 0085                     STR_16 0087                     STR_25 005E  
                   STR_41 0082                     STR_33 0088                     STR_17 005A  
           __CFG_WDTE$OFF 0000                     STR_34 0058                     STR_26 0064  
                   STR_42 0085                     STR_18 0060                     STR_35 005E  
                   STR_27 006A                     STR_43 0088                     STR_19 0066  
                   STR_36 0064                     STR_28 0070           __end_of___awmod 1000  
                   STR_37 006A                     STR_29 0076                     STR_38 0070  
                   STR_39 0076          __end_of_LCDvalue 0F7A           ___awdiv@divisor 0077  
   POTENCIOMETRO@unidades 004B           ___awdiv@counter 003C                     _RCREG 001A  
                   _SPBRG 0099                     _PORTB 0006                     _TRISB 0086  
                   _TXREG 0019            __CFG_FCMEN$OFF 0000        __size_of_UART_Init 00DA  
      __size_of_UART_Read 0008                     _clean 0E92                     pclath 000A  
                   status 0003                     wtemp0 007E     __end_of_POTENCIOMETRO 05C9  
         __initialization 07F3              __end_of_main 03A2                    ??_main 0055  
       __end_of_FOTORESIS 07F3                    ?_clean 0070          ___awdiv@dividend 0079  
                  _TRISC6 043E                    _TRISC7 043F                 ??_Control 0077  
        __end_of_delay_ms 0FA7          __end_of_delay_us 0EEB            __CFG_PWRTE$OFF 0000  
   __end_of_Tiempocontrol 0F04         __end_of_UART_Init 0270         __end_of_UART_Read 0EA1  
               ??___aldiv 0078   POTENCIOMETRO@centesimas 004D                 ??___awdiv 007B  
               ??___awmod 0074            impresion@valor 0077             lcddirection@x 0078  
           lcddirection@y 007A          ___awdiv@quotient 003E           ___awmod@divisor 0070  
         ___awmod@counter 0075   POTENCIOMETRO@coordenada 0054      __end_of_lcddirection 0F4E  
 __end_of__initialization 07FC                 ?_LCDvalue 0070            __pcstackCOMMON 0070  
     POTENCIOMETRO@result 0052       POTENCIOMETRO@numero 0045             __end_of_clean 0E99  
              __end_of_ON 0ED3                   ??_clean 0078                __pbssBANK0 0020  
    lcddirection@posicion 003C  __size_of_UART_Data_Ready 0006                ??_LCDvalue 0078  
      __size_of_impresion 001F                __pmaintext 0270           FOTORESIS@result 0052  
         FOTORESIS@numero 0045                 ?_delay_ms 0070                 ?_delay_us 0070  
              __stringtab 0003                   _Control 0EA9                   ___aldiv 00F9  
                 ___awdiv 0090                   ___awmod 0FA7         lcddirection@valor 007C  
                 __ptext1 0E92                   __ptext2 0E99                   __ptext3 0196  
                 __ptext4 00F9                   __ptext5 008A                   __ptext6 03A2  
                 __ptext7 0F4E                   __ptext8 05C9                   __ptext9 0F23  
       FOTORESIS@unidades 004B          ___awmod@dividend 0072          ___aldiv@dividend 0074  
              ??_delay_ms 0072                ??_delay_us 0072         __end_of_impresion 0F23  
   __size_of_lcddirection 002B                 _FOTORESIS 05C9                   clrloop0 0EA2  
    end_of_initialization 07FC          ___aldiv@quotient 003E         ??_UART_Data_Ready 0070  
               _UART_Init 0196                 _UART_Read 0E99              _lcddirection 0F23  
               _PORTDbits 0008         _POTENCIOMETRO$885 004E    __size_of_POTENCIOMETRO 0227  
               _TRISDbits 0088                ?_FOTORESIS 0070      POTENCIOMETRO@decimas 004C  
     FOTORESIS@centesimas 004D         __size_of_LCDvalue 002C                FOTORESIS@i 0050  
              ?_UART_Init 0042                ?_UART_Read 0070       start_initialization 07F3  
     FOTORESIS@coordenada 0054    __size_of_Tiempocontrol 0019             _POTENCIOMETRO 03A2  
      POTENCIOMETRO@F1348 0026                 ___latbits 0002             __pcstackBANK0 003C  
      POTENCIOMETRO@valor 0053               ??_FOTORESIS 0040         __size_of_delay_ms 002D  
       __size_of_delay_us 0018    __CFG_FOSC$INTRC_CLKOUT 0000            FOTORESIS@F1358 0020  
                ?_Control 0070            ?_POTENCIOMETRO 0070             _Tiempocontrol 0EEB  
                ?___aldiv 0070                  ?___awdiv 0077                  ?___awmod 0070  
          FOTORESIS@valor 0053               ??_UART_Init 0046               ??_UART_Read 0070  
                ON@valor1 0075                 __pstrings 0003          FOTORESIS@decimas 004C  
          __size_of_clean 0007                UART_Init@x 0079               __size_of_ON 0015  
               _impresion 0F04           ___aldiv@divisor 0070           ___aldiv@counter 003C  
         _UART_Data_Ready 008A                 delay_ms@i 0073                 delay_ms@j 0075  
               delay_us@i 0073                 clear_ram0 0EA1                  _LCDvalue 0F4E  
          ?_Tiempocontrol 0070         UART_Init@baudrate 0042               __stringbase 0008  
              ?_impresion 0070           ??_POTENCIOMETRO 0040          __size_of_Control 0015  
        __size_of___aldiv 009D          __size_of___awdiv 0069          __size_of___awmod 0059  
      __end_of__stringtab 0009                  _delay_ms 0F7A                  _delay_us 0ED3  
                __ptext10 0F04                  __ptext11 0EBE                  __ptext12 0EA9  
                __ptext13 0F7A                  __ptext14 0EEB                  __ptext15 0ED3  
                __ptext16 0FA7                  __ptext17 0090   __end_of_UART_Data_Ready 0090  
       __CFG_BOR4V$BOR40V 0000             __size_of_main 0132           ??_Tiempocontrol 0075  
             delay_ms@dms 0070               delay_us@dus 0070               ??_impresion 0076  
          POTENCIOMETRO@i 0050                 stringcode 0003                  stringdir 0003  
                stringtab 0003              ___aldiv@sign 003D          ?_UART_Data_Ready 0070  
